
C:\working\one-wire_sniffer\fw\.pio\build\esp32dev\src\main.cpp.o:     file format elf32-xtensa-le

SYMBOL TABLE:
00000000 l    df *ABS*	00000000 main.cpp
00000000 l    d  .text	00000000 .text
00000000 l    d  .data	00000000 .data
00000000 l    d  .bss	00000000 .bss
00000000 l    d  .iram1a	00000000 .iram1a
00000000 l     F .iram1a	0000001e notifyTaskFromISR(void*)
00000000 l    d  .text._Z4waitI12fastestTimerEvNT_7value_tE	00000000 .text._Z4waitI12fastestTimerEvNT_7value_tE
00000000 l     F .text._Z4waitI12fastestTimerEvNT_7value_tE	00000017 void wait<fastestTimer>(fastestTimer::value_t)
00000000 l    d  .text._ZN3fmt2v619basic_memory_bufferIcLj500ESaIcEED2Ev	00000000 .text._ZN3fmt2v619basic_memory_bufferIcLj500ESaIcEED2Ev
00000000 l    d  .text._ZN3fmt2v619basic_memory_bufferIcLj500ESaIcEED0Ev	00000000 .text._ZN3fmt2v619basic_memory_bufferIcLj500ESaIcEED0Ev
00000000 l    d  .text.unlikely._ZN3fmt2v620basic_format_contextISt20back_insert_iteratorINS0_8internal6bufferIcEEEcE8on_errorEPKc$isra$49	00000000 .text.unlikely._ZN3fmt2v620basic_format_contextISt20back_insert_iteratorINS0_8internal6bufferIcEEEcE8on_errorEPKc$isra$49
00000000 l     F .text.unlikely._ZN3fmt2v620basic_format_contextISt20back_insert_iteratorINS0_8internal6bufferIcEEEcE8on_errorEPKc$isra$49	0000000d _ZN3fmt2v620basic_format_contextISt20back_insert_iteratorINS0_8internal6bufferIcEEEcE8on_errorEPKc$isra$49
00000000 l    d  .rodata.str1.1	00000000 .rodata.str1.1
00000000 l    d  .text._ZN3fmt2v68internal21numeric_specs_checkerINS1_13specs_handlerINS0_26basic_format_parse_contextIcNS1_13error_handlerEEENS0_20basic_format_contextISt20back_insert_iteratorINS1_6bufferIcEEEcEEEEE24require_numeric_argumentEv$isra$51	00000000 .text._ZN3fmt2v68internal21numeric_specs_checkerINS1_13specs_handlerINS0_26basic_format_parse_contextIcNS1_13error_handlerEEENS0_20basic_format_contextISt20back_insert_iteratorINS1_6bufferIcEEEcEEEEE24require_numeric_argumentEv$isra$51
00000000 l     F .text._ZN3fmt2v68internal21numeric_specs_checkerINS1_13specs_handlerINS0_26basic_format_parse_contextIcNS1_13error_handlerEEENS0_20basic_format_contextISt20back_insert_iteratorINS1_6bufferIcEEEcEEEEE24require_numeric_argumentEv$isra$51	00000027 _ZN3fmt2v68internal21numeric_specs_checkerINS1_13specs_handlerINS0_26basic_format_parse_contextIcNS1_13error_handlerEEENS0_20basic_format_contextISt20back_insert_iteratorINS1_6bufferIcEEEcEEEEE24require_numeric_argumentEv$isra$51
00000000 l    d  .text._ZSt8__fill_aIcEN9__gnu_cxx11__enable_ifIXsrSt9__is_byteIT_E7__valueEvE6__typeEPS3_S7_RKS3_$isra$125	00000000 .text._ZSt8__fill_aIcEN9__gnu_cxx11__enable_ifIXsrSt9__is_byteIT_E7__valueEvE6__typeEPS3_S7_RKS3_$isra$125
00000000 l     F .text._ZSt8__fill_aIcEN9__gnu_cxx11__enable_ifIXsrSt9__is_byteIT_E7__valueEvE6__typeEPS3_S7_RKS3_$isra$125	00000014 _ZSt8__fill_aIcEN9__gnu_cxx11__enable_ifIXsrSt9__is_byteIT_E7__valueEvE6__typeEPS3_S7_RKS3_$isra$125
00000000 l    d  .text._ZN3fmt2v68internal13width_checkerINS1_13error_handlerEEclINS0_9monostateELi0EEEyT_$isra$141	00000000 .text._ZN3fmt2v68internal13width_checkerINS1_13error_handlerEEclINS0_9monostateELi0EEEyT_$isra$141
00000000 l     F .text._ZN3fmt2v68internal13width_checkerINS1_13error_handlerEEclINS0_9monostateELi0EEEyT_$isra$141	0000000e _ZN3fmt2v68internal13width_checkerINS1_13error_handlerEEclINS0_9monostateELi0EEEyT_$isra$141
00000000 l     F .text._ZN3fmt2v68internal13width_checkerINS1_13error_handlerEEclINS0_9monostateELi0EEEyT_$isra$141	0000000e _ZN3fmt2v68internal13width_checkerINS1_13error_handlerEEclIfLi0EEEyT_$isra$134
00000000 l     F .text._ZN3fmt2v68internal13width_checkerINS1_13error_handlerEEclINS0_9monostateELi0EEEyT_$isra$141	0000000e _ZN3fmt2v68internal13width_checkerINS1_13error_handlerEEclIdLi0EEEyT_$isra$135
00000000 l     F .text._ZN3fmt2v68internal13width_checkerINS1_13error_handlerEEclINS0_9monostateELi0EEEyT_$isra$141	0000000e _ZN3fmt2v68internal13width_checkerINS1_13error_handlerEEclIeLi0EEEyT_$isra$136
00000000 l     F .text._ZN3fmt2v68internal13width_checkerINS1_13error_handlerEEclINS0_9monostateELi0EEEyT_$isra$141	0000000e _ZN3fmt2v68internal13width_checkerINS1_13error_handlerEEclIPKcLi0EEEyT_$isra$137
00000000 l     F .text._ZN3fmt2v68internal13width_checkerINS1_13error_handlerEEclINS0_9monostateELi0EEEyT_$isra$141	0000000e _ZN3fmt2v68internal13width_checkerINS1_13error_handlerEEclINS0_17basic_string_viewIcEELi0EEEyT_$isra$138
00000000 l     F .text._ZN3fmt2v68internal13width_checkerINS1_13error_handlerEEclINS0_9monostateELi0EEEyT_$isra$141	0000000e _ZN3fmt2v68internal13width_checkerINS1_13error_handlerEEclIPKvLi0EEEyT_$isra$139
00000000 l     F .text._ZN3fmt2v68internal13width_checkerINS1_13error_handlerEEclINS0_9monostateELi0EEEyT_$isra$141	0000000e _ZN3fmt2v68internal13width_checkerINS1_13error_handlerEEclINS0_16basic_format_argINS0_20basic_format_contextISt20back_insert_iteratorINS1_6bufferIcEEEcEEE6handleELi0EEEyT_$isra$140
00000000 l    d  .text._ZN3fmt2v68internal17precision_checkerINS1_13error_handlerEEclINS0_9monostateELi0EEEyT_$isra$153	00000000 .text._ZN3fmt2v68internal17precision_checkerINS1_13error_handlerEEclINS0_9monostateELi0EEEyT_$isra$153
00000000 l     F .text._ZN3fmt2v68internal17precision_checkerINS1_13error_handlerEEclINS0_9monostateELi0EEEyT_$isra$153	0000000e _ZN3fmt2v68internal17precision_checkerINS1_13error_handlerEEclINS0_9monostateELi0EEEyT_$isra$153
00000000 l     F .text._ZN3fmt2v68internal17precision_checkerINS1_13error_handlerEEclINS0_9monostateELi0EEEyT_$isra$153	0000000e _ZN3fmt2v68internal17precision_checkerINS1_13error_handlerEEclIfLi0EEEyT_$isra$146
00000000 l     F .text._ZN3fmt2v68internal17precision_checkerINS1_13error_handlerEEclINS0_9monostateELi0EEEyT_$isra$153	0000000e _ZN3fmt2v68internal17precision_checkerINS1_13error_handlerEEclIdLi0EEEyT_$isra$147
00000000 l     F .text._ZN3fmt2v68internal17precision_checkerINS1_13error_handlerEEclINS0_9monostateELi0EEEyT_$isra$153	0000000e _ZN3fmt2v68internal17precision_checkerINS1_13error_handlerEEclIeLi0EEEyT_$isra$148
00000000 l     F .text._ZN3fmt2v68internal17precision_checkerINS1_13error_handlerEEclINS0_9monostateELi0EEEyT_$isra$153	0000000e _ZN3fmt2v68internal17precision_checkerINS1_13error_handlerEEclIPKcLi0EEEyT_$isra$149
00000000 l     F .text._ZN3fmt2v68internal17precision_checkerINS1_13error_handlerEEclINS0_9monostateELi0EEEyT_$isra$153	0000000e _ZN3fmt2v68internal17precision_checkerINS1_13error_handlerEEclINS0_17basic_string_viewIcEELi0EEEyT_$isra$150
00000000 l     F .text._ZN3fmt2v68internal17precision_checkerINS1_13error_handlerEEclINS0_9monostateELi0EEEyT_$isra$153	0000000e _ZN3fmt2v68internal17precision_checkerINS1_13error_handlerEEclIPKvLi0EEEyT_$isra$151
00000000 l     F .text._ZN3fmt2v68internal17precision_checkerINS1_13error_handlerEEclINS0_9monostateELi0EEEyT_$isra$153	0000000e _ZN3fmt2v68internal17precision_checkerINS1_13error_handlerEEclINS0_16basic_format_argINS0_20basic_format_contextISt20back_insert_iteratorINS1_6bufferIcEEEcEEE6handleELi0EEEyT_$isra$152
00000000 l    d  .text._ZN3fmt2v68internal12basic_writerINS0_12buffer_rangeIcEEE10int_writerIcNS0_18basic_format_specsIcEEE8on_errorEv$isra$81	00000000 .text._ZN3fmt2v68internal12basic_writerINS0_12buffer_rangeIcEEE10int_writerIcNS0_18basic_format_specsIcEEE8on_errorEv$isra$81
00000000 l     F .text._ZN3fmt2v68internal12basic_writerINS0_12buffer_rangeIcEEE10int_writerIcNS0_18basic_format_specsIcEEE8on_errorEv$isra$81	0000003c _ZN3fmt2v68internal12basic_writerINS0_12buffer_rangeIcEEE10int_writerIcNS0_18basic_format_specsIcEEE8on_errorEv$isra$81
00000000 l    d  .gcc_except_table._ZN3fmt2v68internal12basic_writerINS0_12buffer_rangeIcEEE10int_writerIcNS0_18basic_format_specsIcEEE8on_errorEv$isra$81	00000000 .gcc_except_table._ZN3fmt2v68internal12basic_writerINS0_12buffer_rangeIcEEE10int_writerIcNS0_18basic_format_specsIcEEE8on_errorEv$isra$81
00000000 l     F .text._ZN3fmt2v68internal12basic_writerINS0_12buffer_rangeIcEEE10int_writerIcNS0_18basic_format_specsIcEEE8on_errorEv$isra$81	0000003c _ZN3fmt2v68internal12basic_writerINS0_12buffer_rangeIcEEE10int_writerIiNS0_18basic_format_specsIcEEE8on_errorEv$isra$60
00000000 l     F .text._ZN3fmt2v68internal12basic_writerINS0_12buffer_rangeIcEEE10int_writerIcNS0_18basic_format_specsIcEEE8on_errorEv$isra$81	0000003c _ZN3fmt2v68internal12basic_writerINS0_12buffer_rangeIcEEE10int_writerIjNS0_18basic_format_specsIcEEE8on_errorEv$isra$62
00000000 l     F .text._ZN3fmt2v68internal12basic_writerINS0_12buffer_rangeIcEEE10int_writerIcNS0_18basic_format_specsIcEEE8on_errorEv$isra$81	0000003c _ZN3fmt2v68internal12basic_writerINS0_12buffer_rangeIcEEE10int_writerIxNS0_18basic_format_specsIcEEE8on_errorEv$isra$63
00000000 l     F .text._ZN3fmt2v68internal12basic_writerINS0_12buffer_rangeIcEEE10int_writerIcNS0_18basic_format_specsIcEEE8on_errorEv$isra$81	0000003c _ZN3fmt2v68internal12basic_writerINS0_12buffer_rangeIcEEE10int_writerIyNS0_18basic_format_specsIcEEE8on_errorEv$isra$65
00000000 l    d  .text._ZN3fmt2v68internal16is_integral_typeENS1_4typeE	00000000 .text._ZN3fmt2v68internal16is_integral_typeENS1_4typeE
00000000 l    d  .text._ZN3fmt2v68internal12count_digitsEy	00000000 .text._ZN3fmt2v68internal12count_digitsEy
00000000 l    d  .text._ZN3fmt2v68internal12count_digitsEj	00000000 .text._ZN3fmt2v68internal12count_digitsEj
00000000 l    d  .text._ZN7Printer5beginEjjj	00000000 .text._ZN7Printer5beginEjjj
00000000 l     O .rodata._ZZN7Printer5beginEjjjE12__FUNCTION__	00000006 Printer::begin(unsigned int, unsigned int, unsigned int)::__FUNCTION__
00000000 l    d  .iram1	00000000 .iram1
00000000 l    d  .text._ZN7OneWire11becomeSlaveEv	00000000 .text._ZN7OneWire11becomeSlaveEv
00000000 l    d  .text._Z4loopv	00000000 .text._Z4loopv
00000000 l    d  .text._ZN3fmt2v68internal11to_unsignedIiEENSt13make_unsignedIT_E4typeES4_	00000000 .text._ZN3fmt2v68internal11to_unsignedIiEENSt13make_unsignedIT_E4typeES4_
00000000 l    d  .text._ZN3fmt2v618basic_format_specsIcEC2Ev	00000000 .text._ZN3fmt2v618basic_format_specsIcEC2Ev
00000000 l    d  .text._ZN3fmt2v68internal13is_name_startIcEEbT_	00000000 .text._ZN3fmt2v68internal13is_name_startIcEEbT_
00000000 l    d  .text._ZN3fmt2v626basic_format_parse_contextIcNS0_8internal13error_handlerEE10advance_toEPKc	00000000 .text._ZN3fmt2v626basic_format_parse_contextIcNS0_8internal13error_handlerEE10advance_toEPKc
00000000 l    d  .text._ZN3fmt2v68internal11parse_alignIcRNS1_13specs_checkerINS1_13specs_handlerINS0_26basic_format_parse_contextIcNS1_13error_handlerEEENS0_20basic_format_contextISt20back_insert_iteratorINS1_6bufferIcEEEcEEEEEEEEPKT_SJ_SJ_OT0_	00000000 .text._ZN3fmt2v68internal11parse_alignIcRNS1_13specs_checkerINS1_13specs_handlerINS0_26basic_format_parse_contextIcNS1_13error_handlerEEENS0_20basic_format_contextISt20back_insert_iteratorINS1_6bufferIcEEEcEEEEEEEEPKT_SJ_SJ_OT0_
00000000 l    d  .gcc_except_table._ZN3fmt2v68internal11parse_alignIcRNS1_13specs_checkerINS1_13specs_handlerINS0_26basic_format_parse_contextIcNS1_13error_handlerEEENS0_20basic_format_contextISt20back_insert_iteratorINS1_6bufferIcEEEcEEEEEEEEPKT_SJ_SJ_OT0_	00000000 .gcc_except_table._ZN3fmt2v68internal11parse_alignIcRNS1_13specs_checkerINS1_13specs_handlerINS0_26basic_format_parse_contextIcNS1_13error_handlerEEENS0_20basic_format_contextISt20back_insert_iteratorINS1_6bufferIcEEEcEEEEEEEEPKT_SJ_SJ_OT0_
00000000 l    d  .text._ZN3fmt2v68internal6bufferIcE7reserveEj	00000000 .text._ZN3fmt2v68internal6bufferIcE7reserveEj
00000000 l    d  .text._ZN3fmt2v68internal7reserveINS1_6bufferIcEELi0EEEPNT_10value_typeERSt20back_insert_iteratorIS5_Ej	00000000 .text._ZN3fmt2v68internal7reserveINS1_6bufferIcEELi0EEEPNT_10value_typeERSt20back_insert_iteratorIS5_Ej
00000000 l    d  .text._ZN3fmt2v68internal21numeric_specs_checkerINS1_13specs_handlerINS0_26basic_format_parse_contextIcNS1_13error_handlerEEENS0_20basic_format_contextISt20back_insert_iteratorINS1_6bufferIcEEEcEEEEE10check_signEv	00000000 .text._ZN3fmt2v68internal21numeric_specs_checkerINS1_13specs_handlerINS0_26basic_format_parse_contextIcNS1_13error_handlerEEENS0_20basic_format_contextISt20back_insert_iteratorINS1_6bufferIcEEEcEEEEE10check_signEv
00000000 l    d  .text._ZN3fmt2v68internal21parse_float_type_specINS1_13error_handlerEcEENS1_11float_specsERKNS0_18basic_format_specsIT0_EEOT_	00000000 .text._ZN3fmt2v68internal21parse_float_type_specINS1_13error_handlerEcEENS1_11float_specsERKNS0_18basic_format_specsIT0_EEOT_
00000000 l    d  .text._ZN3fmt2v68internal6bufferIcE9push_backERKc	00000000 .text._ZN3fmt2v68internal6bufferIcE9push_backERKc
00000000 l    d  .text._ZN3fmt2v68internal21parse_nonnegative_intIcRNS1_17precision_adapterIRNS1_13specs_checkerINS1_13specs_handlerINS0_26basic_format_parse_contextIcNS1_13error_handlerEEENS0_20basic_format_contextISt20back_insert_iteratorINS1_6bufferIcEEEcEEEEEEcEEEEiRPKT_SM_OT0_	00000000 .text._ZN3fmt2v68internal21parse_nonnegative_intIcRNS1_17precision_adapterIRNS1_13specs_checkerINS1_13specs_handlerINS0_26basic_format_parse_contextIcNS1_13error_handlerEEENS0_20basic_format_contextISt20back_insert_iteratorINS1_6bufferIcEEEcEEEEEEcEEEEiRPKT_SM_OT0_
00000000 l    d  .text._ZNK3fmt2v617basic_format_argsINS0_20basic_format_contextISt20back_insert_iteratorINS0_8internal6bufferIcEEEcEEE6do_getEi	00000000 .text._ZNK3fmt2v617basic_format_argsINS0_20basic_format_contextISt20back_insert_iteratorINS0_8internal6bufferIcEEEcEEE6do_getEi
00000000 l    d  .text._ZNK3fmt2v68internal14named_arg_baseIcE11deserializeINS0_20basic_format_contextISt20back_insert_iteratorINS1_6bufferIcEEEcEEEENS0_16basic_format_argIT_EEv	00000000 .text._ZNK3fmt2v68internal14named_arg_baseIcE11deserializeINS0_20basic_format_contextISt20back_insert_iteratorINS1_6bufferIcEEEcEEEENS0_16basic_format_argIT_EEv
00000000 l    d  .text._ZN3fmt2v68internal7get_argINS0_20basic_format_contextISt20back_insert_iteratorINS1_6bufferIcEEEcEEEENT_10format_argERS9_i	00000000 .text._ZN3fmt2v68internal7get_argINS0_20basic_format_contextISt20back_insert_iteratorINS1_6bufferIcEEEcEEEENT_10format_argERS9_i
00000000 l    d  .text._ZN3fmt2v614format_handlerINS0_13arg_formatterINS0_12buffer_rangeIcEEEEcNS0_20basic_format_contextISt20back_insert_iteratorINS0_8internal6bufferIcEEEcEEE7get_argEi	00000000 .text._ZN3fmt2v614format_handlerINS0_13arg_formatterINS0_12buffer_rangeIcEEEEcNS0_20basic_format_contextISt20back_insert_iteratorINS0_8internal6bufferIcEEEcEEE7get_argEi
00000000 l    d  .text._ZN3fmt2v614format_handlerINS0_13arg_formatterINS0_12buffer_rangeIcEEEEcNS0_20basic_format_contextISt20back_insert_iteratorINS0_8internal6bufferIcEEEcEEE9on_arg_idEv	00000000 .text._ZN3fmt2v614format_handlerINS0_13arg_formatterINS0_12buffer_rangeIcEEEEcNS0_20basic_format_contextISt20back_insert_iteratorINS0_8internal6bufferIcEEEcEEE9on_arg_idEv
00000000 l    d  .text._ZN3fmt2v68internal7arg_mapINS0_20basic_format_contextISt20back_insert_iteratorINS1_6bufferIcEEEcEEE9push_backENS1_5valueIS8_EE$isra$71	00000000 .text._ZN3fmt2v68internal7arg_mapINS0_20basic_format_contextISt20back_insert_iteratorINS1_6bufferIcEEEcEEE9push_backENS1_5valueIS8_EE$isra$71
00000000 l     F .text._ZN3fmt2v68internal7arg_mapINS0_20basic_format_contextISt20back_insert_iteratorINS1_6bufferIcEEEcEEE9push_backENS1_5valueIS8_EE$isra$71	0000002d _ZN3fmt2v68internal7arg_mapINS0_20basic_format_contextISt20back_insert_iteratorINS1_6bufferIcEEEcEEE9push_backENS1_5valueIS8_EE$isra$71
00000000 l    d  .text._ZN3fmt2v68internal7arg_mapINS0_20basic_format_contextISt20back_insert_iteratorINS1_6bufferIcEEEcEEE4initERKNS0_17basic_format_argsIS8_EE	00000000 .text._ZN3fmt2v68internal7arg_mapINS0_20basic_format_contextISt20back_insert_iteratorINS1_6bufferIcEEEcEEE4initERKNS0_17basic_format_argsIS8_EE
00000000 l    d  .text._ZN3fmt2v620basic_format_contextISt20back_insert_iteratorINS0_8internal6bufferIcEEEcE3argENS0_17basic_string_viewIcEE	00000000 .text._ZN3fmt2v620basic_format_contextISt20back_insert_iteratorINS0_8internal6bufferIcEEEcE3argENS0_17basic_string_viewIcEE
00000000 l    d  .text._ZN3fmt2v68internal12parse_arg_idIcNS1_10id_adapterIRNS0_14format_handlerINS0_13arg_formatterINS0_12buffer_rangeIcEEEEcNS0_20basic_format_contextISt20back_insert_iteratorINS1_6bufferIcEEEcEEEEcEEEEPKT_SK_SK_OT0_	00000000 .text._ZN3fmt2v68internal12parse_arg_idIcNS1_10id_adapterIRNS0_14format_handlerINS0_13arg_formatterINS0_12buffer_rangeIcEEEEcNS0_20basic_format_contextISt20back_insert_iteratorINS1_6bufferIcEEEcEEEEcEEEEPKT_SK_SK_OT0_
00000000 l    d  .text._ZNSt11__copy_moveILb0ELb1ESt26random_access_iterator_tagE8__copy_mIcEEPT_PKS3_S6_S4_	00000000 .text._ZNSt11__copy_moveILb0ELb1ESt26random_access_iterator_tagE8__copy_mIcEEPT_PKS3_S6_S4_
00000000 l    d  .text._ZN3fmt2v614format_handlerINS0_13arg_formatterINS0_12buffer_rangeIcEEEEcNS0_20basic_format_contextISt20back_insert_iteratorINS0_8internal6bufferIcEEEcEEE7on_textEPKcSF_	00000000 .text._ZN3fmt2v614format_handlerINS0_13arg_formatterINS0_12buffer_rangeIcEEEEcNS0_20basic_format_contextISt20back_insert_iteratorINS0_8internal6bufferIcEEEcEEE7on_textEPKcSF_
00000000 l    d  .text._ZZN3fmt2v68internal19parse_format_stringILb0EcRNS0_14format_handlerINS0_13arg_formatterINS0_12buffer_rangeIcEEEEcNS0_20basic_format_contextISt20back_insert_iteratorINS1_6bufferIcEEEcEEEEEEvNS0_17basic_string_viewIT0_EEOT1_EN10pfs_writerclEPKcSN_	00000000 .text._ZZN3fmt2v68internal19parse_format_stringILb0EcRNS0_14format_handlerINS0_13arg_formatterINS0_12buffer_rangeIcEEEEcNS0_20basic_format_contextISt20back_insert_iteratorINS1_6bufferIcEEEcEEEEEEvNS0_17basic_string_viewIT0_EEOT1_EN10pfs_writerclEPKcSN_
00000000 l    d  .text._ZNK3fmt2v68internal12basic_writerINS0_12buffer_rangeIcEEE10str_writerIcEclIRPcEEvOT_	00000000 .text._ZNK3fmt2v68internal12basic_writerINS0_12buffer_rangeIcEEE10str_writerIcEclIRPcEEvOT_
00000000 l    d  .text._ZN3fmt2v68internal12basic_writerINS0_12buffer_rangeIcEEE5writeENS0_17basic_string_viewIcEE	00000000 .text._ZN3fmt2v68internal12basic_writerINS0_12buffer_rangeIcEEE5writeENS0_17basic_string_viewIcEE
00000000 l    d  .text._ZNK3fmt2v68internal16nonfinite_writerIcEclIRPcEEvOT_	00000000 .text._ZNK3fmt2v68internal16nonfinite_writerIcEclIRPcEEvOT_
00000000 l    d  .text._ZN3fmt2v68internal14format_decimalIcjPcZNS1_14format_decimalIcS3_jEET0_S5_T1_iEUlS3_E_EES6_S6_S5_iT2_$isra$156	00000000 .text._ZN3fmt2v68internal14format_decimalIcjPcZNS1_14format_decimalIcS3_jEET0_S5_T1_iEUlS3_E_EES6_S6_S5_iT2_$isra$156
00000000 l     F .text._ZN3fmt2v68internal14format_decimalIcjPcZNS1_14format_decimalIcS3_jEET0_S5_T1_iEUlS3_E_EES6_S6_S5_iT2_$isra$156	000000a6 _ZN3fmt2v68internal14format_decimalIcjPcZNS1_14format_decimalIcS3_jEET0_S5_T1_iEUlS3_E_EES6_S6_S5_iT2_$isra$156
00000000 l    d  .text._ZN3fmt2v68internal14format_decimalIcyPcZNS1_14format_decimalIcS3_yEET0_S5_T1_iEUlS3_E_EES6_S6_S5_iT2_$isra$157	00000000 .text._ZN3fmt2v68internal14format_decimalIcyPcZNS1_14format_decimalIcS3_yEET0_S5_T1_iEUlS3_E_EES6_S6_S5_iT2_$isra$157
00000000 l     F .text._ZN3fmt2v68internal14format_decimalIcyPcZNS1_14format_decimalIcS3_yEET0_S5_T1_iEUlS3_E_EES6_S6_S5_iT2_$isra$157	000000c7 _ZN3fmt2v68internal14format_decimalIcyPcZNS1_14format_decimalIcS3_yEET0_S5_T1_iEUlS3_E_EES6_S6_S5_iT2_$isra$157
00000000 l    d  .text._ZN3fmt2v68internal4fillIPccEET_S4_jRKNS1_6fill_tIT0_EE	00000000 .text._ZN3fmt2v68internal4fillIPccEET_S4_jRKNS1_6fill_tIT0_EE
00000000 l    d  .text._ZN3fmt2v68internal12basic_writerINS0_12buffer_rangeIcEEE12write_paddedINS5_10str_writerIcEEEEvRKNS0_18basic_format_specsIcEEOT_	00000000 .text._ZN3fmt2v68internal12basic_writerINS0_12buffer_rangeIcEEE12write_paddedINS5_10str_writerIcEEEEvRKNS0_18basic_format_specsIcEEOT_
00000000 l    d  .text._ZN3fmt2v68internal12basic_writerINS0_12buffer_rangeIcEEE5writeIcEEvNS0_17basic_string_viewIT_EERKNS0_18basic_format_specsIcEE	00000000 .text._ZN3fmt2v68internal12basic_writerINS0_12buffer_rangeIcEEE5writeIcEEvNS0_17basic_string_viewIT_EERKNS0_18basic_format_specsIcEE
00000000 l    d  .text._ZN3fmt2v68internal18arg_formatter_baseINS0_12buffer_rangeIcEENS1_13error_handlerEE5writeEPKc	00000000 .text._ZN3fmt2v68internal18arg_formatter_baseINS0_12buffer_rangeIcEENS1_13error_handlerEE5writeEPKc
00000000 l    d  .gcc_except_table._ZN3fmt2v68internal18arg_formatter_baseINS0_12buffer_rangeIcEENS1_13error_handlerEE5writeEPKc	00000000 .gcc_except_table._ZN3fmt2v68internal18arg_formatter_baseINS0_12buffer_rangeIcEENS1_13error_handlerEE5writeEPKc
00000000 l    d  .text._ZN3fmt2v68internal12basic_writerINS0_12buffer_rangeIcEEE12write_paddedINS1_16nonfinite_writerIcEEEEvRKNS0_18basic_format_specsIcEEOT_	00000000 .text._ZN3fmt2v68internal12basic_writerINS0_12buffer_rangeIcEEE12write_paddedINS1_16nonfinite_writerIcEEEEvRKNS0_18basic_format_specsIcEEOT_
00000000 l    d  .text._ZN3fmt2v619basic_memory_bufferIcLj500ESaIcEE4growEj	00000000 .text._ZN3fmt2v619basic_memory_bufferIcLj500ESaIcEE4growEj
00000000 l    d  .text._ZN3fmt2v68internal12basic_writerINS0_12buffer_rangeIcEEE12write_paddedINS1_18arg_formatter_baseIS4_NS1_13error_handlerEE11char_writerEEEvRKNS0_18basic_format_specsIcEEOT_	00000000 .text._ZN3fmt2v68internal12basic_writerINS0_12buffer_rangeIcEEE12write_paddedINS1_18arg_formatter_baseIS4_NS1_13error_handlerEE11char_writerEEEvRKNS0_18basic_format_specsIcEEOT_
00000000 l    d  .text._ZN3fmt2v68internal18arg_formatter_baseINS0_12buffer_rangeIcEENS1_13error_handlerEE10write_charEc	00000000 .text._ZN3fmt2v68internal18arg_formatter_baseINS0_12buffer_rangeIcEENS1_13error_handlerEE10write_charEc
00000000 l    d  .text._ZN3fmt2v68internal8copy_strIcPKcNS1_17counting_iteratorELi0EEET1_T0_S7_S6_	00000000 .text._ZN3fmt2v68internal8copy_strIcPKcNS1_17counting_iteratorELi0EEET1_T0_S7_S6_
00000000 l    d  .text._ZNK3fmt2v68internal12float_writerIcE8prettifyINS1_17counting_iteratorEEET_S6_	00000000 .text._ZNK3fmt2v68internal12float_writerIcE8prettifyINS1_17counting_iteratorEEET_S6_
00000000 l    d  .text._ZN3fmt2v68internal12float_writerIcEC2EPKciiNS1_11float_specsEc	00000000 .text._ZN3fmt2v68internal12float_writerIcEC2EPKciiNS1_11float_specsEc
00000000 l    d  .text._ZNK3fmt2v68internal12float_writerIcE8prettifyIPcEET_S6_	00000000 .text._ZNK3fmt2v68internal12float_writerIcE8prettifyIPcEET_S6_
00000000 l    d  .text._ZN3fmt2v68internal12float_writerIcEclIRPcEEvOT_	00000000 .text._ZN3fmt2v68internal12float_writerIcEclIRPcEEvOT_
00000000 l    d  .text._ZN3fmt2v68internal12basic_writerINS0_12buffer_rangeIcEEE12write_paddedINS1_12float_writerIcEEEEvRKNS0_18basic_format_specsIcEEOT_	00000000 .text._ZN3fmt2v68internal12basic_writerINS0_12buffer_rangeIcEEE12write_paddedINS1_12float_writerIcEEEEvRKNS0_18basic_format_specsIcEEOT_
00000000 l    d  .text._ZN3fmt2v68internal12basic_writerINS0_12buffer_rangeIcEEE5writeIfLi0EEEvT_NS0_18basic_format_specsIcEE	00000000 .text._ZN3fmt2v68internal12basic_writerINS0_12buffer_rangeIcEEE5writeIfLi0EEEvT_NS0_18basic_format_specsIcEE
00000000 l    d  .gcc_except_table._ZN3fmt2v68internal12basic_writerINS0_12buffer_rangeIcEEE5writeIfLi0EEEvT_NS0_18basic_format_specsIcEE	00000000 .gcc_except_table._ZN3fmt2v68internal12basic_writerINS0_12buffer_rangeIcEEE5writeIfLi0EEEvT_NS0_18basic_format_specsIcEE
00000000 l    d  .text._ZN3fmt2v68internal12basic_writerINS0_12buffer_rangeIcEEE5writeIdLi0EEEvT_NS0_18basic_format_specsIcEE	00000000 .text._ZN3fmt2v68internal12basic_writerINS0_12buffer_rangeIcEEE5writeIdLi0EEEvT_NS0_18basic_format_specsIcEE
00000000 l    d  .gcc_except_table._ZN3fmt2v68internal12basic_writerINS0_12buffer_rangeIcEEE5writeIdLi0EEEvT_NS0_18basic_format_specsIcEE	00000000 .gcc_except_table._ZN3fmt2v68internal12basic_writerINS0_12buffer_rangeIcEEE5writeIdLi0EEEvT_NS0_18basic_format_specsIcEE
00000000 l    d  .text._ZN3fmt2v68internal12basic_writerINS0_12buffer_rangeIcEEE5writeIeLi0EEEvT_NS0_18basic_format_specsIcEE	00000000 .text._ZN3fmt2v68internal12basic_writerINS0_12buffer_rangeIcEEE5writeIeLi0EEEvT_NS0_18basic_format_specsIcEE
00000000 l    d  .gcc_except_table._ZN3fmt2v68internal12basic_writerINS0_12buffer_rangeIcEEE5writeIeLi0EEEvT_NS0_18basic_format_specsIcEE	00000000 .gcc_except_table._ZN3fmt2v68internal12basic_writerINS0_12buffer_rangeIcEEE5writeIeLi0EEEvT_NS0_18basic_format_specsIcEE
00000000 l    d  .text._ZN3fmt2v68internal11format_uintILj4EcjEEPT0_S4_T1_ib	00000000 .text._ZN3fmt2v68internal11format_uintILj4EcjEEPT0_S4_T1_ib
00000000 l    d  .text._ZNK3fmt2v68internal12basic_writerINS0_12buffer_rangeIcEEE14pointer_writerIjEclIRPcEEvOT_	00000000 .text._ZNK3fmt2v68internal12basic_writerINS0_12buffer_rangeIcEEE14pointer_writerIjEclIRPcEEvOT_
00000000 l    d  .text._ZN3fmt2v68internal12basic_writerINS0_12buffer_rangeIcEEE12write_paddedIRNS5_14pointer_writerIjEEEEvRKNS0_18basic_format_specsIcEEOT_	00000000 .text._ZN3fmt2v68internal12basic_writerINS0_12buffer_rangeIcEEE12write_paddedIRNS5_14pointer_writerIjEEEEvRKNS0_18basic_format_specsIcEEOT_
00000000 l    d  .text._ZN3fmt2v68internal12basic_writerINS0_12buffer_rangeIcEEE13write_pointerIjEEvT_PKNS0_18basic_format_specsIcEE	00000000 .text._ZN3fmt2v68internal12basic_writerINS0_12buffer_rangeIcEEE13write_pointerIjEEvT_PKNS0_18basic_format_specsIcEE
00000000 l    d  .text._ZN3fmt2v68internal18arg_formatter_baseINS0_12buffer_rangeIcEENS1_13error_handlerEE13write_pointerEPKv	00000000 .text._ZN3fmt2v68internal18arg_formatter_baseINS0_12buffer_rangeIcEENS1_13error_handlerEE13write_pointerEPKv
00000000 l    d  .text._ZN3fmt2v616visit_format_argINS0_8internal13width_checkerINS2_13error_handlerEEENS0_20basic_format_contextISt20back_insert_iteratorINS2_6bufferIcEEEcEEEEDTclfp_Li0EEEOT_RKNS0_16basic_format_argIT0_EE	00000000 .text._ZN3fmt2v616visit_format_argINS0_8internal13width_checkerINS2_13error_handlerEEENS0_20basic_format_contextISt20back_insert_iteratorINS2_6bufferIcEEEcEEEEDTclfp_Li0EEEOT_RKNS0_16basic_format_argIT0_EE
00000000 l    d  .rodata._ZN3fmt2v616visit_format_argINS0_8internal13width_checkerINS2_13error_handlerEEENS0_20basic_format_contextISt20back_insert_iteratorINS2_6bufferIcEEEcEEEEDTclfp_Li0EEEOT_RKNS0_16basic_format_argIT0_EE	00000000 .rodata._ZN3fmt2v616visit_format_argINS0_8internal13width_checkerINS2_13error_handlerEEENS0_20basic_format_contextISt20back_insert_iteratorINS2_6bufferIcEEEcEEEEDTclfp_Li0EEEOT_RKNS0_16basic_format_argIT0_EE
00000000 l    d  .text._ZN3fmt2v68internal16get_dynamic_specINS1_13width_checkerENS0_16basic_format_argINS0_20basic_format_contextISt20back_insert_iteratorINS1_6bufferIcEEEcEEEENS1_13error_handlerEEEiT0_T1_	00000000 .text._ZN3fmt2v68internal16get_dynamic_specINS1_13width_checkerENS0_16basic_format_argINS0_20basic_format_contextISt20back_insert_iteratorINS1_6bufferIcEEEcEEEENS1_13error_handlerEEEiT0_T1_
00000000 l    d  .text._ZN3fmt2v68internal12parse_arg_idIcNS1_13width_adapterIRNS1_13specs_checkerINS1_13specs_handlerINS0_26basic_format_parse_contextIcNS1_13error_handlerEEENS0_20basic_format_contextISt20back_insert_iteratorINS1_6bufferIcEEEcEEEEEEcEEEEPKT_SL_SL_OT0_	00000000 .text._ZN3fmt2v68internal12parse_arg_idIcNS1_13width_adapterIRNS1_13specs_checkerINS1_13specs_handlerINS0_26basic_format_parse_contextIcNS1_13error_handlerEEENS0_20basic_format_contextISt20back_insert_iteratorINS1_6bufferIcEEEcEEEEEEcEEEEPKT_SL_SL_OT0_
00000000 l    d  .text._ZN3fmt2v616visit_format_argINS0_8internal17precision_checkerINS2_13error_handlerEEENS0_20basic_format_contextISt20back_insert_iteratorINS2_6bufferIcEEEcEEEEDTclfp_Li0EEEOT_RKNS0_16basic_format_argIT0_EE	00000000 .text._ZN3fmt2v616visit_format_argINS0_8internal17precision_checkerINS2_13error_handlerEEENS0_20basic_format_contextISt20back_insert_iteratorINS2_6bufferIcEEEcEEEEDTclfp_Li0EEEOT_RKNS0_16basic_format_argIT0_EE
00000000 l    d  .rodata._ZN3fmt2v616visit_format_argINS0_8internal17precision_checkerINS2_13error_handlerEEENS0_20basic_format_contextISt20back_insert_iteratorINS2_6bufferIcEEEcEEEEDTclfp_Li0EEEOT_RKNS0_16basic_format_argIT0_EE	00000000 .rodata._ZN3fmt2v616visit_format_argINS0_8internal17precision_checkerINS2_13error_handlerEEENS0_20basic_format_contextISt20back_insert_iteratorINS2_6bufferIcEEEcEEEEDTclfp_Li0EEEOT_RKNS0_16basic_format_argIT0_EE
00000000 l    d  .text._ZN3fmt2v68internal16get_dynamic_specINS1_17precision_checkerENS0_16basic_format_argINS0_20basic_format_contextISt20back_insert_iteratorINS1_6bufferIcEEEcEEEENS1_13error_handlerEEEiT0_T1_	00000000 .text._ZN3fmt2v68internal16get_dynamic_specINS1_17precision_checkerENS0_16basic_format_argINS0_20basic_format_contextISt20back_insert_iteratorINS1_6bufferIcEEEcEEEENS1_13error_handlerEEEiT0_T1_
00000000 l    d  .text._ZN3fmt2v68internal12parse_arg_idIcNS1_17precision_adapterIRNS1_13specs_checkerINS1_13specs_handlerINS0_26basic_format_parse_contextIcNS1_13error_handlerEEENS0_20basic_format_contextISt20back_insert_iteratorINS1_6bufferIcEEEcEEEEEEcEEEEPKT_SL_SL_OT0_	00000000 .text._ZN3fmt2v68internal12parse_arg_idIcNS1_17precision_adapterIRNS1_13specs_checkerINS1_13specs_handlerINS0_26basic_format_parse_contextIcNS1_13error_handlerEEENS0_20basic_format_contextISt20back_insert_iteratorINS1_6bufferIcEEEcEEEEEEcEEEEPKT_SL_SL_OT0_
00000000 l    d  .text._ZN3fmt2v68internal15parse_precisionIcRNS1_13specs_checkerINS1_13specs_handlerINS0_26basic_format_parse_contextIcNS1_13error_handlerEEENS0_20basic_format_contextISt20back_insert_iteratorINS1_6bufferIcEEEcEEEEEEEEPKT_SJ_SJ_OT0_	00000000 .text._ZN3fmt2v68internal15parse_precisionIcRNS1_13specs_checkerINS1_13specs_handlerINS0_26basic_format_parse_contextIcNS1_13error_handlerEEENS0_20basic_format_contextISt20back_insert_iteratorINS1_6bufferIcEEEcEEEEEEEEPKT_SJ_SJ_OT0_
00000000 l    d  .text._ZN3fmt2v68internal18parse_format_specsIcRNS1_13specs_checkerINS1_13specs_handlerINS0_26basic_format_parse_contextIcNS1_13error_handlerEEENS0_20basic_format_contextISt20back_insert_iteratorINS1_6bufferIcEEEcEEEEEEEEPKT_SJ_SJ_OT0_	00000000 .text._ZN3fmt2v68internal18parse_format_specsIcRNS1_13specs_checkerINS1_13specs_handlerINS0_26basic_format_parse_contextIcNS1_13error_handlerEEENS0_20basic_format_contextISt20back_insert_iteratorINS1_6bufferIcEEEcEEEEEEEEPKT_SJ_SJ_OT0_
00000000 l    d  .text._ZNK3fmt2v68internal12basic_writerINS0_12buffer_rangeIcEEE17padded_int_writerINS5_10int_writerIiNS0_18basic_format_specsIcEEE10dec_writerEEclIRPcEEvOT_	00000000 .text._ZNK3fmt2v68internal12basic_writerINS0_12buffer_rangeIcEEE17padded_int_writerINS5_10int_writerIiNS0_18basic_format_specsIcEEE10dec_writerEEclIRPcEEvOT_
00000000 l    d  .text._ZN3fmt2v68internal12basic_writerINS0_12buffer_rangeIcEEE12write_paddedINS5_17padded_int_writerINS5_10int_writerIiNS0_18basic_format_specsIcEEE10dec_writerEEEEEvRKSA_OT_	00000000 .text._ZN3fmt2v68internal12basic_writerINS0_12buffer_rangeIcEEE12write_paddedINS5_17padded_int_writerINS5_10int_writerIiNS0_18basic_format_specsIcEEE10dec_writerEEEEEvRKSA_OT_
00000000 l    d  .text._ZN3fmt2v68internal12basic_writerINS0_12buffer_rangeIcEEE10int_writerIiNS0_18basic_format_specsIcEEE6on_decEv	00000000 .text._ZN3fmt2v68internal12basic_writerINS0_12buffer_rangeIcEEE10int_writerIiNS0_18basic_format_specsIcEEE6on_decEv
00000000 l    d  .text._ZNK3fmt2v68internal12basic_writerINS0_12buffer_rangeIcEEE17padded_int_writerINS5_10int_writerIiNS0_18basic_format_specsIcEEE10hex_writerEEclIRPcEEvOT_	00000000 .text._ZNK3fmt2v68internal12basic_writerINS0_12buffer_rangeIcEEE17padded_int_writerINS5_10int_writerIiNS0_18basic_format_specsIcEEE10hex_writerEEclIRPcEEvOT_
00000000 l    d  .text._ZN3fmt2v68internal12basic_writerINS0_12buffer_rangeIcEEE12write_paddedINS5_17padded_int_writerINS5_10int_writerIiNS0_18basic_format_specsIcEEE10hex_writerEEEEEvRKSA_OT_	00000000 .text._ZN3fmt2v68internal12basic_writerINS0_12buffer_rangeIcEEE12write_paddedINS5_17padded_int_writerINS5_10int_writerIiNS0_18basic_format_specsIcEEE10hex_writerEEEEEvRKSA_OT_
00000000 l    d  .text._ZN3fmt2v68internal12basic_writerINS0_12buffer_rangeIcEEE10int_writerIiNS0_18basic_format_specsIcEEE6on_hexEv	00000000 .text._ZN3fmt2v68internal12basic_writerINS0_12buffer_rangeIcEEE10int_writerIiNS0_18basic_format_specsIcEEE6on_hexEv
00000000 l    d  .text._ZNK3fmt2v68internal12basic_writerINS0_12buffer_rangeIcEEE17padded_int_writerINS5_10int_writerIiNS0_18basic_format_specsIcEEE10bin_writerILi1EEEEclIRPcEEvOT_	00000000 .text._ZNK3fmt2v68internal12basic_writerINS0_12buffer_rangeIcEEE17padded_int_writerINS5_10int_writerIiNS0_18basic_format_specsIcEEE10bin_writerILi1EEEEclIRPcEEvOT_
00000000 l    d  .text._ZN3fmt2v68internal12basic_writerINS0_12buffer_rangeIcEEE12write_paddedINS5_17padded_int_writerINS5_10int_writerIiNS0_18basic_format_specsIcEEE10bin_writerILi1EEEEEEEvRKSA_OT_	00000000 .text._ZN3fmt2v68internal12basic_writerINS0_12buffer_rangeIcEEE12write_paddedINS5_17padded_int_writerINS5_10int_writerIiNS0_18basic_format_specsIcEEE10bin_writerILi1EEEEEEEvRKSA_OT_
00000000 l    d  .text._ZN3fmt2v68internal12basic_writerINS0_12buffer_rangeIcEEE10int_writerIiNS0_18basic_format_specsIcEEE6on_binEv	00000000 .text._ZN3fmt2v68internal12basic_writerINS0_12buffer_rangeIcEEE10int_writerIiNS0_18basic_format_specsIcEEE6on_binEv
00000000 l    d  .text._ZNK3fmt2v68internal12basic_writerINS0_12buffer_rangeIcEEE17padded_int_writerINS5_10int_writerIiNS0_18basic_format_specsIcEEE10bin_writerILi3EEEEclIRPcEEvOT_	00000000 .text._ZNK3fmt2v68internal12basic_writerINS0_12buffer_rangeIcEEE17padded_int_writerINS5_10int_writerIiNS0_18basic_format_specsIcEEE10bin_writerILi3EEEEclIRPcEEvOT_
00000000 l    d  .text._ZN3fmt2v68internal12basic_writerINS0_12buffer_rangeIcEEE12write_paddedINS5_17padded_int_writerINS5_10int_writerIiNS0_18basic_format_specsIcEEE10bin_writerILi3EEEEEEEvRKSA_OT_	00000000 .text._ZN3fmt2v68internal12basic_writerINS0_12buffer_rangeIcEEE12write_paddedINS5_17padded_int_writerINS5_10int_writerIiNS0_18basic_format_specsIcEEE10bin_writerILi3EEEEEEEvRKSA_OT_
00000000 l    d  .text._ZN3fmt2v68internal12basic_writerINS0_12buffer_rangeIcEEE10int_writerIiNS0_18basic_format_specsIcEEE6on_octEv	00000000 .text._ZN3fmt2v68internal12basic_writerINS0_12buffer_rangeIcEEE10int_writerIiNS0_18basic_format_specsIcEEE6on_octEv
00000000 l    d  .text._ZNK3fmt2v68internal12basic_writerINS0_12buffer_rangeIcEEE17padded_int_writerINS5_10int_writerIjNS0_18basic_format_specsIcEEE10dec_writerEEclIRPcEEvOT_	00000000 .text._ZNK3fmt2v68internal12basic_writerINS0_12buffer_rangeIcEEE17padded_int_writerINS5_10int_writerIjNS0_18basic_format_specsIcEEE10dec_writerEEclIRPcEEvOT_
00000000 l    d  .text._ZN3fmt2v68internal12basic_writerINS0_12buffer_rangeIcEEE12write_paddedINS5_17padded_int_writerINS5_10int_writerIjNS0_18basic_format_specsIcEEE10dec_writerEEEEEvRKSA_OT_	00000000 .text._ZN3fmt2v68internal12basic_writerINS0_12buffer_rangeIcEEE12write_paddedINS5_17padded_int_writerINS5_10int_writerIjNS0_18basic_format_specsIcEEE10dec_writerEEEEEvRKSA_OT_
00000000 l    d  .text._ZN3fmt2v68internal12basic_writerINS0_12buffer_rangeIcEEE10int_writerIjNS0_18basic_format_specsIcEEE6on_decEv	00000000 .text._ZN3fmt2v68internal12basic_writerINS0_12buffer_rangeIcEEE10int_writerIjNS0_18basic_format_specsIcEEE6on_decEv
00000000 l    d  .text._ZNK3fmt2v68internal12basic_writerINS0_12buffer_rangeIcEEE17padded_int_writerINS5_10int_writerIjNS0_18basic_format_specsIcEEE10hex_writerEEclIRPcEEvOT_	00000000 .text._ZNK3fmt2v68internal12basic_writerINS0_12buffer_rangeIcEEE17padded_int_writerINS5_10int_writerIjNS0_18basic_format_specsIcEEE10hex_writerEEclIRPcEEvOT_
00000000 l    d  .text._ZN3fmt2v68internal12basic_writerINS0_12buffer_rangeIcEEE12write_paddedINS5_17padded_int_writerINS5_10int_writerIjNS0_18basic_format_specsIcEEE10hex_writerEEEEEvRKSA_OT_	00000000 .text._ZN3fmt2v68internal12basic_writerINS0_12buffer_rangeIcEEE12write_paddedINS5_17padded_int_writerINS5_10int_writerIjNS0_18basic_format_specsIcEEE10hex_writerEEEEEvRKSA_OT_
00000000 l    d  .text._ZN3fmt2v68internal12basic_writerINS0_12buffer_rangeIcEEE10int_writerIjNS0_18basic_format_specsIcEEE6on_hexEv	00000000 .text._ZN3fmt2v68internal12basic_writerINS0_12buffer_rangeIcEEE10int_writerIjNS0_18basic_format_specsIcEEE6on_hexEv
00000000 l    d  .text._ZNK3fmt2v68internal12basic_writerINS0_12buffer_rangeIcEEE17padded_int_writerINS5_10int_writerIjNS0_18basic_format_specsIcEEE10bin_writerILi1EEEEclIRPcEEvOT_	00000000 .text._ZNK3fmt2v68internal12basic_writerINS0_12buffer_rangeIcEEE17padded_int_writerINS5_10int_writerIjNS0_18basic_format_specsIcEEE10bin_writerILi1EEEEclIRPcEEvOT_
00000000 l    d  .text._ZN3fmt2v68internal12basic_writerINS0_12buffer_rangeIcEEE12write_paddedINS5_17padded_int_writerINS5_10int_writerIjNS0_18basic_format_specsIcEEE10bin_writerILi1EEEEEEEvRKSA_OT_	00000000 .text._ZN3fmt2v68internal12basic_writerINS0_12buffer_rangeIcEEE12write_paddedINS5_17padded_int_writerINS5_10int_writerIjNS0_18basic_format_specsIcEEE10bin_writerILi1EEEEEEEvRKSA_OT_
00000000 l    d  .text._ZN3fmt2v68internal12basic_writerINS0_12buffer_rangeIcEEE10int_writerIjNS0_18basic_format_specsIcEEE6on_binEv	00000000 .text._ZN3fmt2v68internal12basic_writerINS0_12buffer_rangeIcEEE10int_writerIjNS0_18basic_format_specsIcEEE6on_binEv
00000000 l    d  .text._ZNK3fmt2v68internal12basic_writerINS0_12buffer_rangeIcEEE17padded_int_writerINS5_10int_writerIjNS0_18basic_format_specsIcEEE10bin_writerILi3EEEEclIRPcEEvOT_	00000000 .text._ZNK3fmt2v68internal12basic_writerINS0_12buffer_rangeIcEEE17padded_int_writerINS5_10int_writerIjNS0_18basic_format_specsIcEEE10bin_writerILi3EEEEclIRPcEEvOT_
00000000 l    d  .text._ZN3fmt2v68internal12basic_writerINS0_12buffer_rangeIcEEE12write_paddedINS5_17padded_int_writerINS5_10int_writerIjNS0_18basic_format_specsIcEEE10bin_writerILi3EEEEEEEvRKSA_OT_	00000000 .text._ZN3fmt2v68internal12basic_writerINS0_12buffer_rangeIcEEE12write_paddedINS5_17padded_int_writerINS5_10int_writerIjNS0_18basic_format_specsIcEEE10bin_writerILi3EEEEEEEvRKSA_OT_
00000000 l    d  .text._ZN3fmt2v68internal12basic_writerINS0_12buffer_rangeIcEEE10int_writerIjNS0_18basic_format_specsIcEEE6on_octEv	00000000 .text._ZN3fmt2v68internal12basic_writerINS0_12buffer_rangeIcEEE10int_writerIjNS0_18basic_format_specsIcEEE6on_octEv
00000000 l    d  .text._ZNK3fmt2v68internal12basic_writerINS0_12buffer_rangeIcEEE17padded_int_writerINS5_10int_writerIxNS0_18basic_format_specsIcEEE10dec_writerEEclIRPcEEvOT_	00000000 .text._ZNK3fmt2v68internal12basic_writerINS0_12buffer_rangeIcEEE17padded_int_writerINS5_10int_writerIxNS0_18basic_format_specsIcEEE10dec_writerEEclIRPcEEvOT_
00000000 l    d  .text._ZN3fmt2v68internal12basic_writerINS0_12buffer_rangeIcEEE12write_paddedINS5_17padded_int_writerINS5_10int_writerIxNS0_18basic_format_specsIcEEE10dec_writerEEEEEvRKSA_OT_	00000000 .text._ZN3fmt2v68internal12basic_writerINS0_12buffer_rangeIcEEE12write_paddedINS5_17padded_int_writerINS5_10int_writerIxNS0_18basic_format_specsIcEEE10dec_writerEEEEEvRKSA_OT_
00000000 l    d  .text._ZN3fmt2v68internal12basic_writerINS0_12buffer_rangeIcEEE10int_writerIxNS0_18basic_format_specsIcEEE6on_decEv	00000000 .text._ZN3fmt2v68internal12basic_writerINS0_12buffer_rangeIcEEE10int_writerIxNS0_18basic_format_specsIcEEE6on_decEv
00000000 l    d  .text._ZNK3fmt2v68internal12basic_writerINS0_12buffer_rangeIcEEE17padded_int_writerINS5_10int_writerIxNS0_18basic_format_specsIcEEE10hex_writerEEclIRPcEEvOT_	00000000 .text._ZNK3fmt2v68internal12basic_writerINS0_12buffer_rangeIcEEE17padded_int_writerINS5_10int_writerIxNS0_18basic_format_specsIcEEE10hex_writerEEclIRPcEEvOT_
00000000 l    d  .text._ZN3fmt2v68internal12basic_writerINS0_12buffer_rangeIcEEE12write_paddedINS5_17padded_int_writerINS5_10int_writerIxNS0_18basic_format_specsIcEEE10hex_writerEEEEEvRKSA_OT_	00000000 .text._ZN3fmt2v68internal12basic_writerINS0_12buffer_rangeIcEEE12write_paddedINS5_17padded_int_writerINS5_10int_writerIxNS0_18basic_format_specsIcEEE10hex_writerEEEEEvRKSA_OT_
00000000 l    d  .text._ZN3fmt2v68internal12basic_writerINS0_12buffer_rangeIcEEE10int_writerIxNS0_18basic_format_specsIcEEE6on_hexEv	00000000 .text._ZN3fmt2v68internal12basic_writerINS0_12buffer_rangeIcEEE10int_writerIxNS0_18basic_format_specsIcEEE6on_hexEv
00000000 l    d  .text._ZNK3fmt2v68internal12basic_writerINS0_12buffer_rangeIcEEE17padded_int_writerINS5_10int_writerIxNS0_18basic_format_specsIcEEE10bin_writerILi1EEEEclIRPcEEvOT_	00000000 .text._ZNK3fmt2v68internal12basic_writerINS0_12buffer_rangeIcEEE17padded_int_writerINS5_10int_writerIxNS0_18basic_format_specsIcEEE10bin_writerILi1EEEEclIRPcEEvOT_
00000000 l    d  .text._ZN3fmt2v68internal12basic_writerINS0_12buffer_rangeIcEEE12write_paddedINS5_17padded_int_writerINS5_10int_writerIxNS0_18basic_format_specsIcEEE10bin_writerILi1EEEEEEEvRKSA_OT_	00000000 .text._ZN3fmt2v68internal12basic_writerINS0_12buffer_rangeIcEEE12write_paddedINS5_17padded_int_writerINS5_10int_writerIxNS0_18basic_format_specsIcEEE10bin_writerILi1EEEEEEEvRKSA_OT_
00000000 l    d  .text._ZN3fmt2v68internal12basic_writerINS0_12buffer_rangeIcEEE10int_writerIxNS0_18basic_format_specsIcEEE6on_binEv	00000000 .text._ZN3fmt2v68internal12basic_writerINS0_12buffer_rangeIcEEE10int_writerIxNS0_18basic_format_specsIcEEE6on_binEv
00000000 l    d  .text._ZNK3fmt2v68internal12basic_writerINS0_12buffer_rangeIcEEE17padded_int_writerINS5_10int_writerIxNS0_18basic_format_specsIcEEE10bin_writerILi3EEEEclIRPcEEvOT_	00000000 .text._ZNK3fmt2v68internal12basic_writerINS0_12buffer_rangeIcEEE17padded_int_writerINS5_10int_writerIxNS0_18basic_format_specsIcEEE10bin_writerILi3EEEEclIRPcEEvOT_
00000000 l    d  .text._ZN3fmt2v68internal12basic_writerINS0_12buffer_rangeIcEEE12write_paddedINS5_17padded_int_writerINS5_10int_writerIxNS0_18basic_format_specsIcEEE10bin_writerILi3EEEEEEEvRKSA_OT_	00000000 .text._ZN3fmt2v68internal12basic_writerINS0_12buffer_rangeIcEEE12write_paddedINS5_17padded_int_writerINS5_10int_writerIxNS0_18basic_format_specsIcEEE10bin_writerILi3EEEEEEEvRKSA_OT_
00000000 l    d  .text._ZN3fmt2v68internal12basic_writerINS0_12buffer_rangeIcEEE10int_writerIxNS0_18basic_format_specsIcEEE6on_octEv	00000000 .text._ZN3fmt2v68internal12basic_writerINS0_12buffer_rangeIcEEE10int_writerIxNS0_18basic_format_specsIcEEE6on_octEv
00000000 l    d  .text._ZNK3fmt2v68internal12basic_writerINS0_12buffer_rangeIcEEE17padded_int_writerINS5_10int_writerIyNS0_18basic_format_specsIcEEE10dec_writerEEclIRPcEEvOT_	00000000 .text._ZNK3fmt2v68internal12basic_writerINS0_12buffer_rangeIcEEE17padded_int_writerINS5_10int_writerIyNS0_18basic_format_specsIcEEE10dec_writerEEclIRPcEEvOT_
00000000 l    d  .text._ZN3fmt2v68internal12basic_writerINS0_12buffer_rangeIcEEE12write_paddedINS5_17padded_int_writerINS5_10int_writerIyNS0_18basic_format_specsIcEEE10dec_writerEEEEEvRKSA_OT_	00000000 .text._ZN3fmt2v68internal12basic_writerINS0_12buffer_rangeIcEEE12write_paddedINS5_17padded_int_writerINS5_10int_writerIyNS0_18basic_format_specsIcEEE10dec_writerEEEEEvRKSA_OT_
00000000 l    d  .text._ZN3fmt2v68internal12basic_writerINS0_12buffer_rangeIcEEE10int_writerIyNS0_18basic_format_specsIcEEE6on_decEv	00000000 .text._ZN3fmt2v68internal12basic_writerINS0_12buffer_rangeIcEEE10int_writerIyNS0_18basic_format_specsIcEEE6on_decEv
00000000 l    d  .text._ZNK3fmt2v68internal12basic_writerINS0_12buffer_rangeIcEEE17padded_int_writerINS5_10int_writerIyNS0_18basic_format_specsIcEEE10hex_writerEEclIRPcEEvOT_	00000000 .text._ZNK3fmt2v68internal12basic_writerINS0_12buffer_rangeIcEEE17padded_int_writerINS5_10int_writerIyNS0_18basic_format_specsIcEEE10hex_writerEEclIRPcEEvOT_
00000000 l    d  .text._ZN3fmt2v68internal12basic_writerINS0_12buffer_rangeIcEEE12write_paddedINS5_17padded_int_writerINS5_10int_writerIyNS0_18basic_format_specsIcEEE10hex_writerEEEEEvRKSA_OT_	00000000 .text._ZN3fmt2v68internal12basic_writerINS0_12buffer_rangeIcEEE12write_paddedINS5_17padded_int_writerINS5_10int_writerIyNS0_18basic_format_specsIcEEE10hex_writerEEEEEvRKSA_OT_
00000000 l    d  .text._ZN3fmt2v68internal12basic_writerINS0_12buffer_rangeIcEEE10int_writerIyNS0_18basic_format_specsIcEEE6on_hexEv	00000000 .text._ZN3fmt2v68internal12basic_writerINS0_12buffer_rangeIcEEE10int_writerIyNS0_18basic_format_specsIcEEE6on_hexEv
00000000 l    d  .text._ZNK3fmt2v68internal12basic_writerINS0_12buffer_rangeIcEEE17padded_int_writerINS5_10int_writerIyNS0_18basic_format_specsIcEEE10bin_writerILi1EEEEclIRPcEEvOT_	00000000 .text._ZNK3fmt2v68internal12basic_writerINS0_12buffer_rangeIcEEE17padded_int_writerINS5_10int_writerIyNS0_18basic_format_specsIcEEE10bin_writerILi1EEEEclIRPcEEvOT_
00000000 l    d  .text._ZN3fmt2v68internal12basic_writerINS0_12buffer_rangeIcEEE12write_paddedINS5_17padded_int_writerINS5_10int_writerIyNS0_18basic_format_specsIcEEE10bin_writerILi1EEEEEEEvRKSA_OT_	00000000 .text._ZN3fmt2v68internal12basic_writerINS0_12buffer_rangeIcEEE12write_paddedINS5_17padded_int_writerINS5_10int_writerIyNS0_18basic_format_specsIcEEE10bin_writerILi1EEEEEEEvRKSA_OT_
00000000 l    d  .text._ZN3fmt2v68internal12basic_writerINS0_12buffer_rangeIcEEE10int_writerIyNS0_18basic_format_specsIcEEE6on_binEv	00000000 .text._ZN3fmt2v68internal12basic_writerINS0_12buffer_rangeIcEEE10int_writerIyNS0_18basic_format_specsIcEEE6on_binEv
00000000 l    d  .text._ZNK3fmt2v68internal12basic_writerINS0_12buffer_rangeIcEEE17padded_int_writerINS5_10int_writerIyNS0_18basic_format_specsIcEEE10bin_writerILi3EEEEclIRPcEEvOT_	00000000 .text._ZNK3fmt2v68internal12basic_writerINS0_12buffer_rangeIcEEE17padded_int_writerINS5_10int_writerIyNS0_18basic_format_specsIcEEE10bin_writerILi3EEEEclIRPcEEvOT_
00000000 l    d  .text._ZN3fmt2v68internal12basic_writerINS0_12buffer_rangeIcEEE12write_paddedINS5_17padded_int_writerINS5_10int_writerIyNS0_18basic_format_specsIcEEE10bin_writerILi3EEEEEEEvRKSA_OT_	00000000 .text._ZN3fmt2v68internal12basic_writerINS0_12buffer_rangeIcEEE12write_paddedINS5_17padded_int_writerINS5_10int_writerIyNS0_18basic_format_specsIcEEE10bin_writerILi3EEEEEEEvRKSA_OT_
00000000 l    d  .text._ZN3fmt2v68internal12basic_writerINS0_12buffer_rangeIcEEE10int_writerIyNS0_18basic_format_specsIcEEE6on_octEv	00000000 .text._ZN3fmt2v68internal12basic_writerINS0_12buffer_rangeIcEEE10int_writerIyNS0_18basic_format_specsIcEEE6on_octEv
00000000 l    d  .text._ZZNK3fmt2v68internal12basic_writerINS0_12buffer_rangeIcEEE10int_writerIiNS0_18basic_format_specsIcEEE10num_writerclIRPcEEvOT_ENKUlSD_E_clESD_	00000000 .text._ZZNK3fmt2v68internal12basic_writerINS0_12buffer_rangeIcEEE10int_writerIiNS0_18basic_format_specsIcEEE10num_writerclIRPcEEvOT_ENKUlSD_E_clESD_
00000000 l    d  .text._ZNK3fmt2v68internal12basic_writerINS0_12buffer_rangeIcEEE10int_writerIiNS0_18basic_format_specsIcEEE10num_writerclIRPcEEvOT_	00000000 .text._ZNK3fmt2v68internal12basic_writerINS0_12buffer_rangeIcEEE10int_writerIiNS0_18basic_format_specsIcEEE10num_writerclIRPcEEvOT_
00000000 l    d  .text._ZNK3fmt2v68internal12basic_writerINS0_12buffer_rangeIcEEE17padded_int_writerINS5_10int_writerIiNS0_18basic_format_specsIcEEE10num_writerEEclIRPcEEvOT_	00000000 .text._ZNK3fmt2v68internal12basic_writerINS0_12buffer_rangeIcEEE17padded_int_writerINS5_10int_writerIiNS0_18basic_format_specsIcEEE10num_writerEEclIRPcEEvOT_
00000000 l    d  .text._ZN3fmt2v68internal12basic_writerINS0_12buffer_rangeIcEEE12write_paddedINS5_17padded_int_writerINS5_10int_writerIiNS0_18basic_format_specsIcEEE10num_writerEEEEEvRKSA_OT_	00000000 .text._ZN3fmt2v68internal12basic_writerINS0_12buffer_rangeIcEEE12write_paddedINS5_17padded_int_writerINS5_10int_writerIiNS0_18basic_format_specsIcEEE10num_writerEEEEEvRKSA_OT_
00000000 l    d  .text._ZN3fmt2v68internal12basic_writerINS0_12buffer_rangeIcEEE10int_writerIiNS0_18basic_format_specsIcEEE6on_numEv	00000000 .text._ZN3fmt2v68internal12basic_writerINS0_12buffer_rangeIcEEE10int_writerIiNS0_18basic_format_specsIcEEE6on_numEv
00000000 l    d  .gcc_except_table._ZN3fmt2v68internal12basic_writerINS0_12buffer_rangeIcEEE10int_writerIiNS0_18basic_format_specsIcEEE6on_numEv	00000000 .gcc_except_table._ZN3fmt2v68internal12basic_writerINS0_12buffer_rangeIcEEE10int_writerIiNS0_18basic_format_specsIcEEE6on_numEv
00000000 l    d  .text._ZN3fmt2v68internal20handle_int_type_specINS1_12basic_writerINS0_12buffer_rangeIcEEE10int_writerIiNS0_18basic_format_specsIcEEEEEEvcOT_	00000000 .text._ZN3fmt2v68internal20handle_int_type_specINS1_12basic_writerINS0_12buffer_rangeIcEEE10int_writerIiNS0_18basic_format_specsIcEEEEEEvcOT_
00000000 l    d  .text._ZN3fmt2v68internal18arg_formatter_baseINS0_12buffer_rangeIcEENS1_13error_handlerEEclIiLi0EEESt20back_insert_iteratorINS1_6bufferIcEEET_	00000000 .text._ZN3fmt2v68internal18arg_formatter_baseINS0_12buffer_rangeIcEENS1_13error_handlerEEclIiLi0EEESt20back_insert_iteratorINS1_6bufferIcEEET_
00000000 l    d  .text._ZZNK3fmt2v68internal12basic_writerINS0_12buffer_rangeIcEEE10int_writerIjNS0_18basic_format_specsIcEEE10num_writerclIRPcEEvOT_ENKUlSD_E_clESD_	00000000 .text._ZZNK3fmt2v68internal12basic_writerINS0_12buffer_rangeIcEEE10int_writerIjNS0_18basic_format_specsIcEEE10num_writerclIRPcEEvOT_ENKUlSD_E_clESD_
00000000 l    d  .text._ZNK3fmt2v68internal12basic_writerINS0_12buffer_rangeIcEEE10int_writerIjNS0_18basic_format_specsIcEEE10num_writerclIRPcEEvOT_	00000000 .text._ZNK3fmt2v68internal12basic_writerINS0_12buffer_rangeIcEEE10int_writerIjNS0_18basic_format_specsIcEEE10num_writerclIRPcEEvOT_
00000000 l    d  .text._ZNK3fmt2v68internal12basic_writerINS0_12buffer_rangeIcEEE17padded_int_writerINS5_10int_writerIjNS0_18basic_format_specsIcEEE10num_writerEEclIRPcEEvOT_	00000000 .text._ZNK3fmt2v68internal12basic_writerINS0_12buffer_rangeIcEEE17padded_int_writerINS5_10int_writerIjNS0_18basic_format_specsIcEEE10num_writerEEclIRPcEEvOT_
00000000 l    d  .text._ZN3fmt2v68internal12basic_writerINS0_12buffer_rangeIcEEE12write_paddedINS5_17padded_int_writerINS5_10int_writerIjNS0_18basic_format_specsIcEEE10num_writerEEEEEvRKSA_OT_	00000000 .text._ZN3fmt2v68internal12basic_writerINS0_12buffer_rangeIcEEE12write_paddedINS5_17padded_int_writerINS5_10int_writerIjNS0_18basic_format_specsIcEEE10num_writerEEEEEvRKSA_OT_
00000000 l    d  .text._ZN3fmt2v68internal12basic_writerINS0_12buffer_rangeIcEEE10int_writerIjNS0_18basic_format_specsIcEEE6on_numEv	00000000 .text._ZN3fmt2v68internal12basic_writerINS0_12buffer_rangeIcEEE10int_writerIjNS0_18basic_format_specsIcEEE6on_numEv
00000000 l    d  .gcc_except_table._ZN3fmt2v68internal12basic_writerINS0_12buffer_rangeIcEEE10int_writerIjNS0_18basic_format_specsIcEEE6on_numEv	00000000 .gcc_except_table._ZN3fmt2v68internal12basic_writerINS0_12buffer_rangeIcEEE10int_writerIjNS0_18basic_format_specsIcEEE6on_numEv
00000000 l    d  .text._ZN3fmt2v68internal20handle_int_type_specINS1_12basic_writerINS0_12buffer_rangeIcEEE10int_writerIjNS0_18basic_format_specsIcEEEEEEvcOT_	00000000 .text._ZN3fmt2v68internal20handle_int_type_specINS1_12basic_writerINS0_12buffer_rangeIcEEE10int_writerIjNS0_18basic_format_specsIcEEEEEEvcOT_
00000000 l    d  .text._ZZNK3fmt2v68internal12basic_writerINS0_12buffer_rangeIcEEE10int_writerIxNS0_18basic_format_specsIcEEE10num_writerclIRPcEEvOT_ENKUlSD_E_clESD_	00000000 .text._ZZNK3fmt2v68internal12basic_writerINS0_12buffer_rangeIcEEE10int_writerIxNS0_18basic_format_specsIcEEE10num_writerclIRPcEEvOT_ENKUlSD_E_clESD_
00000000 l    d  .text._ZNK3fmt2v68internal12basic_writerINS0_12buffer_rangeIcEEE10int_writerIxNS0_18basic_format_specsIcEEE10num_writerclIRPcEEvOT_	00000000 .text._ZNK3fmt2v68internal12basic_writerINS0_12buffer_rangeIcEEE10int_writerIxNS0_18basic_format_specsIcEEE10num_writerclIRPcEEvOT_
00000000 l    d  .text._ZNK3fmt2v68internal12basic_writerINS0_12buffer_rangeIcEEE17padded_int_writerINS5_10int_writerIxNS0_18basic_format_specsIcEEE10num_writerEEclIRPcEEvOT_	00000000 .text._ZNK3fmt2v68internal12basic_writerINS0_12buffer_rangeIcEEE17padded_int_writerINS5_10int_writerIxNS0_18basic_format_specsIcEEE10num_writerEEclIRPcEEvOT_
00000000 l    d  .text._ZN3fmt2v68internal12basic_writerINS0_12buffer_rangeIcEEE12write_paddedINS5_17padded_int_writerINS5_10int_writerIxNS0_18basic_format_specsIcEEE10num_writerEEEEEvRKSA_OT_	00000000 .text._ZN3fmt2v68internal12basic_writerINS0_12buffer_rangeIcEEE12write_paddedINS5_17padded_int_writerINS5_10int_writerIxNS0_18basic_format_specsIcEEE10num_writerEEEEEvRKSA_OT_
00000000 l    d  .text._ZN3fmt2v68internal12basic_writerINS0_12buffer_rangeIcEEE10int_writerIxNS0_18basic_format_specsIcEEE6on_numEv	00000000 .text._ZN3fmt2v68internal12basic_writerINS0_12buffer_rangeIcEEE10int_writerIxNS0_18basic_format_specsIcEEE6on_numEv
00000000 l    d  .gcc_except_table._ZN3fmt2v68internal12basic_writerINS0_12buffer_rangeIcEEE10int_writerIxNS0_18basic_format_specsIcEEE6on_numEv	00000000 .gcc_except_table._ZN3fmt2v68internal12basic_writerINS0_12buffer_rangeIcEEE10int_writerIxNS0_18basic_format_specsIcEEE6on_numEv
00000000 l    d  .text._ZN3fmt2v68internal20handle_int_type_specINS1_12basic_writerINS0_12buffer_rangeIcEEE10int_writerIxNS0_18basic_format_specsIcEEEEEEvcOT_	00000000 .text._ZN3fmt2v68internal20handle_int_type_specINS1_12basic_writerINS0_12buffer_rangeIcEEE10int_writerIxNS0_18basic_format_specsIcEEEEEEvcOT_
00000000 l    d  .text._ZN3fmt2v68internal18arg_formatter_baseINS0_12buffer_rangeIcEENS1_13error_handlerEEclIxLi0EEESt20back_insert_iteratorINS1_6bufferIcEEET_	00000000 .text._ZN3fmt2v68internal18arg_formatter_baseINS0_12buffer_rangeIcEENS1_13error_handlerEEclIxLi0EEESt20back_insert_iteratorINS1_6bufferIcEEET_
00000000 l    d  .text._ZZNK3fmt2v68internal12basic_writerINS0_12buffer_rangeIcEEE10int_writerIyNS0_18basic_format_specsIcEEE10num_writerclIRPcEEvOT_ENKUlSD_E_clESD_	00000000 .text._ZZNK3fmt2v68internal12basic_writerINS0_12buffer_rangeIcEEE10int_writerIyNS0_18basic_format_specsIcEEE10num_writerclIRPcEEvOT_ENKUlSD_E_clESD_
00000000 l    d  .text._ZNK3fmt2v68internal12basic_writerINS0_12buffer_rangeIcEEE10int_writerIyNS0_18basic_format_specsIcEEE10num_writerclIRPcEEvOT_	00000000 .text._ZNK3fmt2v68internal12basic_writerINS0_12buffer_rangeIcEEE10int_writerIyNS0_18basic_format_specsIcEEE10num_writerclIRPcEEvOT_
00000000 l    d  .text._ZNK3fmt2v68internal12basic_writerINS0_12buffer_rangeIcEEE17padded_int_writerINS5_10int_writerIyNS0_18basic_format_specsIcEEE10num_writerEEclIRPcEEvOT_	00000000 .text._ZNK3fmt2v68internal12basic_writerINS0_12buffer_rangeIcEEE17padded_int_writerINS5_10int_writerIyNS0_18basic_format_specsIcEEE10num_writerEEclIRPcEEvOT_
00000000 l    d  .text._ZN3fmt2v68internal12basic_writerINS0_12buffer_rangeIcEEE12write_paddedINS5_17padded_int_writerINS5_10int_writerIyNS0_18basic_format_specsIcEEE10num_writerEEEEEvRKSA_OT_	00000000 .text._ZN3fmt2v68internal12basic_writerINS0_12buffer_rangeIcEEE12write_paddedINS5_17padded_int_writerINS5_10int_writerIyNS0_18basic_format_specsIcEEE10num_writerEEEEEvRKSA_OT_
00000000 l    d  .text._ZN3fmt2v68internal12basic_writerINS0_12buffer_rangeIcEEE10int_writerIyNS0_18basic_format_specsIcEEE6on_numEv	00000000 .text._ZN3fmt2v68internal12basic_writerINS0_12buffer_rangeIcEEE10int_writerIyNS0_18basic_format_specsIcEEE6on_numEv
00000000 l    d  .gcc_except_table._ZN3fmt2v68internal12basic_writerINS0_12buffer_rangeIcEEE10int_writerIyNS0_18basic_format_specsIcEEE6on_numEv	00000000 .gcc_except_table._ZN3fmt2v68internal12basic_writerINS0_12buffer_rangeIcEEE10int_writerIyNS0_18basic_format_specsIcEEE6on_numEv
00000000 l    d  .text._ZN3fmt2v68internal20handle_int_type_specINS1_12basic_writerINS0_12buffer_rangeIcEEE10int_writerIyNS0_18basic_format_specsIcEEEEEEvcOT_	00000000 .text._ZN3fmt2v68internal20handle_int_type_specINS1_12basic_writerINS0_12buffer_rangeIcEEE10int_writerIyNS0_18basic_format_specsIcEEEEEEvcOT_
00000000 l    d  .text._ZNK3fmt2v68internal12basic_writerINS0_12buffer_rangeIcEEE17padded_int_writerINS5_10int_writerIcNS0_18basic_format_specsIcEEE10dec_writerEEclIRPcEEvOT_	00000000 .text._ZNK3fmt2v68internal12basic_writerINS0_12buffer_rangeIcEEE17padded_int_writerINS5_10int_writerIcNS0_18basic_format_specsIcEEE10dec_writerEEclIRPcEEvOT_
00000000 l    d  .text._ZN3fmt2v68internal12basic_writerINS0_12buffer_rangeIcEEE12write_paddedINS5_17padded_int_writerINS5_10int_writerIcNS0_18basic_format_specsIcEEE10dec_writerEEEEEvRKSA_OT_	00000000 .text._ZN3fmt2v68internal12basic_writerINS0_12buffer_rangeIcEEE12write_paddedINS5_17padded_int_writerINS5_10int_writerIcNS0_18basic_format_specsIcEEE10dec_writerEEEEEvRKSA_OT_
00000000 l    d  .text._ZN3fmt2v68internal12basic_writerINS0_12buffer_rangeIcEEE10int_writerIcNS0_18basic_format_specsIcEEE6on_decEv	00000000 .text._ZN3fmt2v68internal12basic_writerINS0_12buffer_rangeIcEEE10int_writerIcNS0_18basic_format_specsIcEEE6on_decEv
00000000 l    d  .text._ZNK3fmt2v68internal12basic_writerINS0_12buffer_rangeIcEEE17padded_int_writerINS5_10int_writerIcNS0_18basic_format_specsIcEEE10hex_writerEEclIRPcEEvOT_	00000000 .text._ZNK3fmt2v68internal12basic_writerINS0_12buffer_rangeIcEEE17padded_int_writerINS5_10int_writerIcNS0_18basic_format_specsIcEEE10hex_writerEEclIRPcEEvOT_
00000000 l    d  .text._ZN3fmt2v68internal12basic_writerINS0_12buffer_rangeIcEEE12write_paddedINS5_17padded_int_writerINS5_10int_writerIcNS0_18basic_format_specsIcEEE10hex_writerEEEEEvRKSA_OT_	00000000 .text._ZN3fmt2v68internal12basic_writerINS0_12buffer_rangeIcEEE12write_paddedINS5_17padded_int_writerINS5_10int_writerIcNS0_18basic_format_specsIcEEE10hex_writerEEEEEvRKSA_OT_
00000000 l    d  .text._ZN3fmt2v68internal12basic_writerINS0_12buffer_rangeIcEEE10int_writerIcNS0_18basic_format_specsIcEEE6on_hexEv	00000000 .text._ZN3fmt2v68internal12basic_writerINS0_12buffer_rangeIcEEE10int_writerIcNS0_18basic_format_specsIcEEE6on_hexEv
00000000 l    d  .text._ZNK3fmt2v68internal12basic_writerINS0_12buffer_rangeIcEEE17padded_int_writerINS5_10int_writerIcNS0_18basic_format_specsIcEEE10bin_writerILi1EEEEclIRPcEEvOT_	00000000 .text._ZNK3fmt2v68internal12basic_writerINS0_12buffer_rangeIcEEE17padded_int_writerINS5_10int_writerIcNS0_18basic_format_specsIcEEE10bin_writerILi1EEEEclIRPcEEvOT_
00000000 l    d  .text._ZN3fmt2v68internal12basic_writerINS0_12buffer_rangeIcEEE12write_paddedINS5_17padded_int_writerINS5_10int_writerIcNS0_18basic_format_specsIcEEE10bin_writerILi1EEEEEEEvRKSA_OT_	00000000 .text._ZN3fmt2v68internal12basic_writerINS0_12buffer_rangeIcEEE12write_paddedINS5_17padded_int_writerINS5_10int_writerIcNS0_18basic_format_specsIcEEE10bin_writerILi1EEEEEEEvRKSA_OT_
00000000 l    d  .text._ZN3fmt2v68internal12basic_writerINS0_12buffer_rangeIcEEE10int_writerIcNS0_18basic_format_specsIcEEE6on_binEv	00000000 .text._ZN3fmt2v68internal12basic_writerINS0_12buffer_rangeIcEEE10int_writerIcNS0_18basic_format_specsIcEEE6on_binEv
00000000 l    d  .text._ZNK3fmt2v68internal12basic_writerINS0_12buffer_rangeIcEEE17padded_int_writerINS5_10int_writerIcNS0_18basic_format_specsIcEEE10bin_writerILi3EEEEclIRPcEEvOT_	00000000 .text._ZNK3fmt2v68internal12basic_writerINS0_12buffer_rangeIcEEE17padded_int_writerINS5_10int_writerIcNS0_18basic_format_specsIcEEE10bin_writerILi3EEEEclIRPcEEvOT_
00000000 l    d  .text._ZN3fmt2v68internal12basic_writerINS0_12buffer_rangeIcEEE12write_paddedINS5_17padded_int_writerINS5_10int_writerIcNS0_18basic_format_specsIcEEE10bin_writerILi3EEEEEEEvRKSA_OT_	00000000 .text._ZN3fmt2v68internal12basic_writerINS0_12buffer_rangeIcEEE12write_paddedINS5_17padded_int_writerINS5_10int_writerIcNS0_18basic_format_specsIcEEE10bin_writerILi3EEEEEEEvRKSA_OT_
00000000 l    d  .text._ZN3fmt2v68internal12basic_writerINS0_12buffer_rangeIcEEE10int_writerIcNS0_18basic_format_specsIcEEE6on_octEv	00000000 .text._ZN3fmt2v68internal12basic_writerINS0_12buffer_rangeIcEEE10int_writerIcNS0_18basic_format_specsIcEEE6on_octEv
00000000 l    d  .text._ZZNK3fmt2v68internal12basic_writerINS0_12buffer_rangeIcEEE10int_writerIcNS0_18basic_format_specsIcEEE10num_writerclIRPcEEvOT_ENKUlSD_E_clESD_	00000000 .text._ZZNK3fmt2v68internal12basic_writerINS0_12buffer_rangeIcEEE10int_writerIcNS0_18basic_format_specsIcEEE10num_writerclIRPcEEvOT_ENKUlSD_E_clESD_
00000000 l    d  .text._ZNK3fmt2v68internal12basic_writerINS0_12buffer_rangeIcEEE10int_writerIcNS0_18basic_format_specsIcEEE10num_writerclIRPcEEvOT_	00000000 .text._ZNK3fmt2v68internal12basic_writerINS0_12buffer_rangeIcEEE10int_writerIcNS0_18basic_format_specsIcEEE10num_writerclIRPcEEvOT_
00000000 l    d  .text._ZNK3fmt2v68internal12basic_writerINS0_12buffer_rangeIcEEE17padded_int_writerINS5_10int_writerIcNS0_18basic_format_specsIcEEE10num_writerEEclIRPcEEvOT_	00000000 .text._ZNK3fmt2v68internal12basic_writerINS0_12buffer_rangeIcEEE17padded_int_writerINS5_10int_writerIcNS0_18basic_format_specsIcEEE10num_writerEEclIRPcEEvOT_
00000000 l    d  .text._ZN3fmt2v68internal12basic_writerINS0_12buffer_rangeIcEEE12write_paddedINS5_17padded_int_writerINS5_10int_writerIcNS0_18basic_format_specsIcEEE10num_writerEEEEEvRKSA_OT_	00000000 .text._ZN3fmt2v68internal12basic_writerINS0_12buffer_rangeIcEEE12write_paddedINS5_17padded_int_writerINS5_10int_writerIcNS0_18basic_format_specsIcEEE10num_writerEEEEEvRKSA_OT_
00000000 l    d  .text._ZN3fmt2v68internal12basic_writerINS0_12buffer_rangeIcEEE10int_writerIcNS0_18basic_format_specsIcEEE6on_numEv	00000000 .text._ZN3fmt2v68internal12basic_writerINS0_12buffer_rangeIcEEE10int_writerIcNS0_18basic_format_specsIcEEE6on_numEv
00000000 l    d  .gcc_except_table._ZN3fmt2v68internal12basic_writerINS0_12buffer_rangeIcEEE10int_writerIcNS0_18basic_format_specsIcEEE6on_numEv	00000000 .gcc_except_table._ZN3fmt2v68internal12basic_writerINS0_12buffer_rangeIcEEE10int_writerIcNS0_18basic_format_specsIcEEE6on_numEv
00000000 l    d  .text._ZN3fmt2v68internal20handle_int_type_specINS1_12basic_writerINS0_12buffer_rangeIcEEE10int_writerIcNS0_18basic_format_specsIcEEEEEEvcOT_	00000000 .text._ZN3fmt2v68internal20handle_int_type_specINS1_12basic_writerINS0_12buffer_rangeIcEEE10int_writerIcNS0_18basic_format_specsIcEEEEEEvcOT_
00000000 l    d  .text._ZN3fmt2v68internal18arg_formatter_baseINS0_12buffer_rangeIcEENS1_13error_handlerEEclEc	00000000 .text._ZN3fmt2v68internal18arg_formatter_baseINS0_12buffer_rangeIcEENS1_13error_handlerEEclEc
00000000 l    d  .text._ZN3fmt2v616visit_format_argINS0_13arg_formatterINS0_12buffer_rangeIcEEEENS0_20basic_format_contextISt20back_insert_iteratorINS0_8internal6bufferIcEEEcEEEEDTclfp_Li0EEEOT_RKNS0_16basic_format_argIT0_EE	00000000 .text._ZN3fmt2v616visit_format_argINS0_13arg_formatterINS0_12buffer_rangeIcEEEENS0_20basic_format_contextISt20back_insert_iteratorINS0_8internal6bufferIcEEEcEEEEDTclfp_Li0EEEOT_RKNS0_16basic_format_argIT0_EE
00000000 l    d  .rodata._ZN3fmt2v616visit_format_argINS0_13arg_formatterINS0_12buffer_rangeIcEEEENS0_20basic_format_contextISt20back_insert_iteratorINS0_8internal6bufferIcEEEcEEEEDTclfp_Li0EEEOT_RKNS0_16basic_format_argIT0_EE	00000000 .rodata._ZN3fmt2v616visit_format_argINS0_13arg_formatterINS0_12buffer_rangeIcEEEENS0_20basic_format_contextISt20back_insert_iteratorINS0_8internal6bufferIcEEEcEEEEDTclfp_Li0EEEOT_RKNS0_16basic_format_argIT0_EE
00000000 l    d  .text._ZN3fmt2v614format_handlerINS0_13arg_formatterINS0_12buffer_rangeIcEEEEcNS0_20basic_format_contextISt20back_insert_iteratorINS0_8internal6bufferIcEEEcEEE20on_replacement_fieldEPKc	00000000 .text._ZN3fmt2v614format_handlerINS0_13arg_formatterINS0_12buffer_rangeIcEEEEcNS0_20basic_format_contextISt20back_insert_iteratorINS0_8internal6bufferIcEEEcEEE20on_replacement_fieldEPKc
00000000 l    d  .text._ZN3fmt2v68internal19parse_format_stringILb0EcRNS0_14format_handlerINS0_13arg_formatterINS0_12buffer_rangeIcEEEEcNS0_20basic_format_contextISt20back_insert_iteratorINS1_6bufferIcEEEcEEEEEEvNS0_17basic_string_viewIT0_EEOT1_	00000000 .text._ZN3fmt2v68internal19parse_format_stringILb0EcRNS0_14format_handlerINS0_13arg_formatterINS0_12buffer_rangeIcEEEEcNS0_20basic_format_contextISt20back_insert_iteratorINS1_6bufferIcEEEcEEEEEEvNS0_17basic_string_viewIT0_EEOT1_
00000000 l    d  .text._ZN3fmt2v610vformat_toINS0_13arg_formatterINS0_12buffer_rangeIcEEEEcNS0_20basic_format_contextISt20back_insert_iteratorINS0_8internal6bufferIcEEEcEEEENT1_8iteratorENT_5rangeENS0_17basic_string_viewIT0_EENS0_17basic_format_argsISD_EENS8_10locale_refE	00000000 .text._ZN3fmt2v610vformat_toINS0_13arg_formatterINS0_12buffer_rangeIcEEEEcNS0_20basic_format_contextISt20back_insert_iteratorINS0_8internal6bufferIcEEEcEEEENT1_8iteratorENT_5rangeENS0_17basic_string_viewIT0_EENS0_17basic_format_argsISD_EENS8_10locale_refE
00000000 l    d  .gcc_except_table._ZN3fmt2v610vformat_toINS0_13arg_formatterINS0_12buffer_rangeIcEEEEcNS0_20basic_format_contextISt20back_insert_iteratorINS0_8internal6bufferIcEEEcEEEENT1_8iteratorENT_5rangeENS0_17basic_string_viewIT0_EENS0_17basic_format_argsISD_EENS8_10locale_refE	00000000 .gcc_except_table._ZN3fmt2v610vformat_toINS0_13arg_formatterINS0_12buffer_rangeIcEEEEcNS0_20basic_format_contextISt20back_insert_iteratorINS0_8internal6bufferIcEEEcEEEENT1_8iteratorENT_5rangeENS0_17basic_string_viewIT0_EENS0_17basic_format_argsISD_EENS8_10locale_refE
00000000 l    d  .text._Z5setupv	00000000 .text._Z5setupv
00000000 l     O .rodata._ZZ5printIA17_cJEEvRKT_DpOT0_E12__FUNCTION__	00000006 void print<char [17]>(char const (&) [17])::__FUNCTION__
00000000 l     F .text._ZL13oneWireMasterPv	00000136 oneWireMaster(void*)
00000000 l     F .text._ZL12oneWireSlavePv	000001a3 oneWireSlave(void*)
00000000 l    d  .text._ZN3fmt2v69format_toIA29_cJRhELj500EcEENS0_14buffer_contextIT2_E8iteratorERNS0_19basic_memory_bufferIS5_XT1_ESaIS5_EEERKT_DpOT0_	00000000 .text._ZN3fmt2v69format_toIA29_cJRhELj500EcEENS0_14buffer_contextIT2_E8iteratorERNS0_19basic_memory_bufferIS5_XT1_ESaIS5_EEERKT_DpOT0_
00000000 l    d  .text._ZL12oneWireSlavePv	00000000 .text._ZL12oneWireSlavePv
00000000 l     O .rodata._ZZ5printIA29_cJhEEvRKT_DpOT0_E12__FUNCTION__	00000006 void print<char [29], unsigned char>(char const (&) [29], unsigned char&&)::__FUNCTION__
00000000 l    d  .text._ZL13oneWireMasterPv	00000000 .text._ZL13oneWireMasterPv
00000000 l     O .rodata._ZZ5printIA16_cJRhEEvRKT_DpOT0_E12__FUNCTION__	00000006 void print<char [16], unsigned char&>(char const (&) [16], unsigned char&)::__FUNCTION__
00000000 l    d  .text.startup._GLOBAL__sub_I__ZN7Printer5queueE	00000000 .text.startup._GLOBAL__sub_I__ZN7Printer5queueE
00000000 l     O .bss._ZL11INADDR_NONE	00000008 INADDR_NONE
00000000 l     F .text.startup._GLOBAL__sub_I__ZN7Printer5queueE	00000016 _GLOBAL__sub_I__ZN7Printer5queueE
00000000 l    d  .ctors	00000000 .ctors
00000000 l    d  .text.exit._GLOBAL__sub_D__ZN7Printer5queueE	00000000 .text.exit._GLOBAL__sub_D__ZN7Printer5queueE
00000000 l     F .text.exit._GLOBAL__sub_D__ZN7Printer5queueE	00000005 _GLOBAL__sub_D__ZN7Printer5queueE
00000000 l    d  .text._ZN7Printer7processEPv	00000000 .text._ZN7Printer7processEPv
00000000 l     O .rodata._ZZN7Printer7processEPvE12__FUNCTION__	00000008 Printer::process(void*)::__FUNCTION__
00000000 l    d  .rodata._ZZ5printIA17_cJEEvRKT_DpOT0_E12__FUNCTION__	00000000 .rodata._ZZ5printIA17_cJEEvRKT_DpOT0_E12__FUNCTION__
00000000 l    d  .rodata._ZZN7Printer7processEPvE12__FUNCTION__	00000000 .rodata._ZZN7Printer7processEPvE12__FUNCTION__
00000000 l    d  .rodata._ZZN7Printer5beginEjjjE12__FUNCTION__	00000000 .rodata._ZZN7Printer5beginEjjjE12__FUNCTION__
00000000 l    d  .rodata._ZZ5printIA16_cJRhEEvRKT_DpOT0_E12__FUNCTION__	00000000 .rodata._ZZ5printIA16_cJRhEEvRKT_DpOT0_E12__FUNCTION__
00000000 l    d  .rodata._ZZ5printIA29_cJhEEvRKT_DpOT0_E12__FUNCTION__	00000000 .rodata._ZZ5printIA29_cJhEEvRKT_DpOT0_E12__FUNCTION__
00000000 l    d  .rodata._ZTSSt9exception	00000000 .rodata._ZTSSt9exception
00000000 l    d  .rodata._ZTISt9exception	00000000 .rodata._ZTISt9exception
00000000 l    d  .rodata._ZTSSt13runtime_error	00000000 .rodata._ZTSSt13runtime_error
00000000 l    d  .rodata._ZTISt13runtime_error	00000000 .rodata._ZTISt13runtime_error
00000000 l    d  .rodata._ZTSN3fmt2v612format_errorE	00000000 .rodata._ZTSN3fmt2v612format_errorE
00000000 l    d  .rodata._ZTIN3fmt2v612format_errorE	00000000 .rodata._ZTIN3fmt2v612format_errorE
00000000 l    d  .rodata._ZTVN3fmt2v619basic_memory_bufferIcLj500ESaIcEEE	00000000 .rodata._ZTVN3fmt2v619basic_memory_bufferIcLj500ESaIcEEE
00000000 l    d  .rodata._ZN7OneWire15OverdriveTimingE	00000000 .rodata._ZN7OneWire15OverdriveTimingE
00000000 l    d  .rodata._ZN7OneWire14StandardTimingE	00000000 .rodata._ZN7OneWire14StandardTimingE
00000000 l    d  .data._ZN7HWTimer6s_lockE	00000000 .data._ZN7HWTimer6s_lockE
00000000 l    d  .bss._ZN7Printer5queueE	00000000 .bss._ZN7Printer5queueE
00000000 l    d  .bss._ZL11INADDR_NONE	00000000 .bss._ZL11INADDR_NONE
00000000 l    d  .debug_frame	00000000 .debug_frame
00000000 l    d  .eh_frame	00000000 .eh_frame
00000000 l    d  .debug_info	00000000 .debug_info
00000000 l    d  .debug_abbrev	00000000 .debug_abbrev
00000000 l    d  .debug_loc	00000000 .debug_loc
00000000 l    d  .debug_aranges	00000000 .debug_aranges
00000000 l    d  .debug_ranges	00000000 .debug_ranges
00000000 l    d  .debug_macro	00000000 .debug_macro
00000000 l    d  .debug_line	00000000 .debug_line
00000000 l    d  .debug_str	00000000 .debug_str
00000000 l    d  .iram1a.literal	00000000 .iram1a.literal
00000000 l    d  .literal._Z4waitI12fastestTimerEvNT_7value_tE	00000000 .literal._Z4waitI12fastestTimerEvNT_7value_tE
00000000 l    d  .literal.unlikely._ZN3fmt2v620basic_format_contextISt20back_insert_iteratorINS0_8internal6bufferIcEEEcE8on_errorEPKc$isra$49	00000000 .literal.unlikely._ZN3fmt2v620basic_format_contextISt20back_insert_iteratorINS0_8internal6bufferIcEEEcE8on_errorEPKc$isra$49
00000000 l    d  .literal._ZN3fmt2v68internal21numeric_specs_checkerINS1_13specs_handlerINS0_26basic_format_parse_contextIcNS1_13error_handlerEEENS0_20basic_format_contextISt20back_insert_iteratorINS1_6bufferIcEEEcEEEEE24require_numeric_argumentEv$isra$51	00000000 .literal._ZN3fmt2v68internal21numeric_specs_checkerINS1_13specs_handlerINS0_26basic_format_parse_contextIcNS1_13error_handlerEEENS0_20basic_format_contextISt20back_insert_iteratorINS1_6bufferIcEEEcEEEEE24require_numeric_argumentEv$isra$51
00000000 l    d  .literal._ZSt8__fill_aIcEN9__gnu_cxx11__enable_ifIXsrSt9__is_byteIT_E7__valueEvE6__typeEPS3_S7_RKS3_$isra$125	00000000 .literal._ZSt8__fill_aIcEN9__gnu_cxx11__enable_ifIXsrSt9__is_byteIT_E7__valueEvE6__typeEPS3_S7_RKS3_$isra$125
00000000 l    d  .literal._ZN3fmt2v68internal13width_checkerINS1_13error_handlerEEclINS0_9monostateELi0EEEyT_$isra$141	00000000 .literal._ZN3fmt2v68internal13width_checkerINS1_13error_handlerEEclINS0_9monostateELi0EEEyT_$isra$141
00000000 l    d  .literal._ZN3fmt2v68internal17precision_checkerINS1_13error_handlerEEclINS0_9monostateELi0EEEyT_$isra$153	00000000 .literal._ZN3fmt2v68internal17precision_checkerINS1_13error_handlerEEclINS0_9monostateELi0EEEyT_$isra$153
00000000 l    d  .literal._ZN3fmt2v68internal12basic_writerINS0_12buffer_rangeIcEEE10int_writerIcNS0_18basic_format_specsIcEEE8on_errorEv$isra$81	00000000 .literal._ZN3fmt2v68internal12basic_writerINS0_12buffer_rangeIcEEE10int_writerIcNS0_18basic_format_specsIcEEE8on_errorEv$isra$81
00000000 l    d  .literal._ZN3fmt2v68internal14format_decimalIcjPcZNS1_14format_decimalIcS3_jEET0_S5_T1_iEUlS3_E_EES6_S6_S5_iT2_$isra$156	00000000 .literal._ZN3fmt2v68internal14format_decimalIcjPcZNS1_14format_decimalIcS3_jEET0_S5_T1_iEUlS3_E_EES6_S6_S5_iT2_$isra$156
00000000 l    d  .literal._ZN3fmt2v68internal14format_decimalIcyPcZNS1_14format_decimalIcS3_yEET0_S5_T1_iEUlS3_E_EES6_S6_S5_iT2_$isra$157	00000000 .literal._ZN3fmt2v68internal14format_decimalIcyPcZNS1_14format_decimalIcS3_yEET0_S5_T1_iEUlS3_E_EES6_S6_S5_iT2_$isra$157
00000000 l    d  .literal._Z5setupv	00000000 .literal._Z5setupv
00000000 l    d  .literal._ZL12oneWireSlavePv	00000000 .literal._ZL12oneWireSlavePv
00000000 l    d  .literal._ZL13oneWireMasterPv	00000000 .literal._ZL13oneWireMasterPv
00000000 l    d  .literal.startup._GLOBAL__sub_I__ZN7Printer5queueE	00000000 .literal.startup._GLOBAL__sub_I__ZN7Printer5queueE
00000000 l    d  .literal._ZN3fmt2v619basic_memory_bufferIcLj500ESaIcEED5Ev	00000000 .literal._ZN3fmt2v619basic_memory_bufferIcLj500ESaIcEED5Ev
00000000 l    d  .literal._ZN3fmt2v68internal16is_integral_typeENS1_4typeE	00000000 .literal._ZN3fmt2v68internal16is_integral_typeENS1_4typeE
00000000 l    d  .literal._ZN3fmt2v68internal12count_digitsEy	00000000 .literal._ZN3fmt2v68internal12count_digitsEy
00000000 l    d  .literal._ZN3fmt2v68internal12count_digitsEj	00000000 .literal._ZN3fmt2v68internal12count_digitsEj
00000000 l    d  .literal._ZN7Printer5beginEjjj	00000000 .literal._ZN7Printer5beginEjjj
00000000 l    d  .literal._ZN3Pin7setHighEv	00000000 .literal._ZN3Pin7setHighEv
00000000 l    d  .literal._ZN7OneWire11becomeSlaveEv	00000000 .literal._ZN7OneWire11becomeSlaveEv
00000000 l    d  .literal._ZN3fmt2v68internal11to_unsignedIiEENSt13make_unsignedIT_E4typeES4_	00000000 .literal._ZN3fmt2v68internal11to_unsignedIiEENSt13make_unsignedIT_E4typeES4_
00000000 l    d  .literal._ZN3fmt2v618basic_format_specsIcEC5Ev	00000000 .literal._ZN3fmt2v618basic_format_specsIcEC5Ev
00000000 l    d  .literal._ZN3fmt2v626basic_format_parse_contextIcNS0_8internal13error_handlerEE10advance_toEPKc	00000000 .literal._ZN3fmt2v626basic_format_parse_contextIcNS0_8internal13error_handlerEE10advance_toEPKc
00000000 l    d  .literal._ZN3fmt2v68internal11parse_alignIcRNS1_13specs_checkerINS1_13specs_handlerINS0_26basic_format_parse_contextIcNS1_13error_handlerEEENS0_20basic_format_contextISt20back_insert_iteratorINS1_6bufferIcEEEcEEEEEEEEPKT_SJ_SJ_OT0_	00000000 .literal._ZN3fmt2v68internal11parse_alignIcRNS1_13specs_checkerINS1_13specs_handlerINS0_26basic_format_parse_contextIcNS1_13error_handlerEEENS0_20basic_format_contextISt20back_insert_iteratorINS1_6bufferIcEEEcEEEEEEEEPKT_SJ_SJ_OT0_
00000000 l    d  .literal._ZN3fmt2v68internal7reserveINS1_6bufferIcEELi0EEEPNT_10value_typeERSt20back_insert_iteratorIS5_Ej	00000000 .literal._ZN3fmt2v68internal7reserveINS1_6bufferIcEELi0EEEPNT_10value_typeERSt20back_insert_iteratorIS5_Ej
00000000 l    d  .literal._ZN3fmt2v68internal21numeric_specs_checkerINS1_13specs_handlerINS0_26basic_format_parse_contextIcNS1_13error_handlerEEENS0_20basic_format_contextISt20back_insert_iteratorINS1_6bufferIcEEEcEEEEE10check_signEv	00000000 .literal._ZN3fmt2v68internal21numeric_specs_checkerINS1_13specs_handlerINS0_26basic_format_parse_contextIcNS1_13error_handlerEEENS0_20basic_format_contextISt20back_insert_iteratorINS1_6bufferIcEEEcEEEEE10check_signEv
00000000 l    d  .literal._ZN3fmt2v68internal21parse_float_type_specINS1_13error_handlerEcEENS1_11float_specsERKNS0_18basic_format_specsIT0_EEOT_	00000000 .literal._ZN3fmt2v68internal21parse_float_type_specINS1_13error_handlerEcEENS1_11float_specsERKNS0_18basic_format_specsIT0_EEOT_
00000000 l    d  .literal._ZN3fmt2v68internal6bufferIcE9push_backERKc	00000000 .literal._ZN3fmt2v68internal6bufferIcE9push_backERKc
00000000 l    d  .literal._ZN3fmt2v68internal21parse_nonnegative_intIcRNS1_17precision_adapterIRNS1_13specs_checkerINS1_13specs_handlerINS0_26basic_format_parse_contextIcNS1_13error_handlerEEENS0_20basic_format_contextISt20back_insert_iteratorINS1_6bufferIcEEEcEEEEEEcEEEEiRPKT_SM_OT0_	00000000 .literal._ZN3fmt2v68internal21parse_nonnegative_intIcRNS1_17precision_adapterIRNS1_13specs_checkerINS1_13specs_handlerINS0_26basic_format_parse_contextIcNS1_13error_handlerEEENS0_20basic_format_contextISt20back_insert_iteratorINS1_6bufferIcEEEcEEEEEEcEEEEiRPKT_SM_OT0_
00000000 l    d  .literal._ZNK3fmt2v617basic_format_argsINS0_20basic_format_contextISt20back_insert_iteratorINS0_8internal6bufferIcEEEcEEE6do_getEi	00000000 .literal._ZNK3fmt2v617basic_format_argsINS0_20basic_format_contextISt20back_insert_iteratorINS0_8internal6bufferIcEEEcEEE6do_getEi
00000000 l    d  .literal._ZNK3fmt2v68internal14named_arg_baseIcE11deserializeINS0_20basic_format_contextISt20back_insert_iteratorINS1_6bufferIcEEEcEEEENS0_16basic_format_argIT_EEv	00000000 .literal._ZNK3fmt2v68internal14named_arg_baseIcE11deserializeINS0_20basic_format_contextISt20back_insert_iteratorINS1_6bufferIcEEEcEEEENS0_16basic_format_argIT_EEv
00000000 l    d  .literal._ZN3fmt2v68internal7get_argINS0_20basic_format_contextISt20back_insert_iteratorINS1_6bufferIcEEEcEEEENT_10format_argERS9_i	00000000 .literal._ZN3fmt2v68internal7get_argINS0_20basic_format_contextISt20back_insert_iteratorINS1_6bufferIcEEEcEEEENT_10format_argERS9_i
00000000 l    d  .literal._ZN3fmt2v614format_handlerINS0_13arg_formatterINS0_12buffer_rangeIcEEEEcNS0_20basic_format_contextISt20back_insert_iteratorINS0_8internal6bufferIcEEEcEEE7get_argEi	00000000 .literal._ZN3fmt2v614format_handlerINS0_13arg_formatterINS0_12buffer_rangeIcEEEEcNS0_20basic_format_contextISt20back_insert_iteratorINS0_8internal6bufferIcEEEcEEE7get_argEi
00000000 l    d  .literal._ZN3fmt2v614format_handlerINS0_13arg_formatterINS0_12buffer_rangeIcEEEEcNS0_20basic_format_contextISt20back_insert_iteratorINS0_8internal6bufferIcEEEcEEE9on_arg_idEv	00000000 .literal._ZN3fmt2v614format_handlerINS0_13arg_formatterINS0_12buffer_rangeIcEEEEcNS0_20basic_format_contextISt20back_insert_iteratorINS0_8internal6bufferIcEEEcEEE9on_arg_idEv
00000000 l    d  .literal._ZN3fmt2v68internal7arg_mapINS0_20basic_format_contextISt20back_insert_iteratorINS1_6bufferIcEEEcEEE4initERKNS0_17basic_format_argsIS8_EE	00000000 .literal._ZN3fmt2v68internal7arg_mapINS0_20basic_format_contextISt20back_insert_iteratorINS1_6bufferIcEEEcEEE4initERKNS0_17basic_format_argsIS8_EE
00000000 l    d  .literal._ZN3fmt2v620basic_format_contextISt20back_insert_iteratorINS0_8internal6bufferIcEEEcE3argENS0_17basic_string_viewIcEE	00000000 .literal._ZN3fmt2v620basic_format_contextISt20back_insert_iteratorINS0_8internal6bufferIcEEEcE3argENS0_17basic_string_viewIcEE
00000000 l    d  .literal._ZN3fmt2v68internal12parse_arg_idIcNS1_10id_adapterIRNS0_14format_handlerINS0_13arg_formatterINS0_12buffer_rangeIcEEEEcNS0_20basic_format_contextISt20back_insert_iteratorINS1_6bufferIcEEEcEEEEcEEEEPKT_SK_SK_OT0_	00000000 .literal._ZN3fmt2v68internal12parse_arg_idIcNS1_10id_adapterIRNS0_14format_handlerINS0_13arg_formatterINS0_12buffer_rangeIcEEEEcNS0_20basic_format_contextISt20back_insert_iteratorINS1_6bufferIcEEEcEEEEcEEEEPKT_SK_SK_OT0_
00000000 l    d  .literal._ZNSt11__copy_moveILb0ELb1ESt26random_access_iterator_tagE8__copy_mIcEEPT_PKS3_S6_S4_	00000000 .literal._ZNSt11__copy_moveILb0ELb1ESt26random_access_iterator_tagE8__copy_mIcEEPT_PKS3_S6_S4_
00000000 l    d  .literal._ZN3fmt2v614format_handlerINS0_13arg_formatterINS0_12buffer_rangeIcEEEEcNS0_20basic_format_contextISt20back_insert_iteratorINS0_8internal6bufferIcEEEcEEE7on_textEPKcSF_	00000000 .literal._ZN3fmt2v614format_handlerINS0_13arg_formatterINS0_12buffer_rangeIcEEEEcNS0_20basic_format_contextISt20back_insert_iteratorINS0_8internal6bufferIcEEEcEEE7on_textEPKcSF_
00000000 l    d  .literal._ZZN3fmt2v68internal19parse_format_stringILb0EcRNS0_14format_handlerINS0_13arg_formatterINS0_12buffer_rangeIcEEEEcNS0_20basic_format_contextISt20back_insert_iteratorINS1_6bufferIcEEEcEEEEEEvNS0_17basic_string_viewIT0_EEOT1_EN10pfs_writerclEPKcSN_	00000000 .literal._ZZN3fmt2v68internal19parse_format_stringILb0EcRNS0_14format_handlerINS0_13arg_formatterINS0_12buffer_rangeIcEEEEcNS0_20basic_format_contextISt20back_insert_iteratorINS1_6bufferIcEEEcEEEEEEvNS0_17basic_string_viewIT0_EEOT1_EN10pfs_writerclEPKcSN_
00000000 l    d  .literal._ZNK3fmt2v68internal12basic_writerINS0_12buffer_rangeIcEEE10str_writerIcEclIRPcEEvOT_	00000000 .literal._ZNK3fmt2v68internal12basic_writerINS0_12buffer_rangeIcEEE10str_writerIcEclIRPcEEvOT_
00000000 l    d  .literal._ZN3fmt2v68internal12basic_writerINS0_12buffer_rangeIcEEE5writeENS0_17basic_string_viewIcEE	00000000 .literal._ZN3fmt2v68internal12basic_writerINS0_12buffer_rangeIcEEE5writeENS0_17basic_string_viewIcEE
00000000 l    d  .literal._ZNK3fmt2v68internal16nonfinite_writerIcEclIRPcEEvOT_	00000000 .literal._ZNK3fmt2v68internal16nonfinite_writerIcEclIRPcEEvOT_
00000000 l    d  .literal._ZN3fmt2v68internal4fillIPccEET_S4_jRKNS1_6fill_tIT0_EE	00000000 .literal._ZN3fmt2v68internal4fillIPccEET_S4_jRKNS1_6fill_tIT0_EE
00000000 l    d  .literal._ZN3fmt2v68internal12basic_writerINS0_12buffer_rangeIcEEE12write_paddedINS5_10str_writerIcEEEEvRKNS0_18basic_format_specsIcEEOT_	00000000 .literal._ZN3fmt2v68internal12basic_writerINS0_12buffer_rangeIcEEE12write_paddedINS5_10str_writerIcEEEEvRKNS0_18basic_format_specsIcEEOT_
00000000 l    d  .literal._ZN3fmt2v68internal12basic_writerINS0_12buffer_rangeIcEEE5writeIcEEvNS0_17basic_string_viewIT_EERKNS0_18basic_format_specsIcEE	00000000 .literal._ZN3fmt2v68internal12basic_writerINS0_12buffer_rangeIcEEE5writeIcEEvNS0_17basic_string_viewIT_EERKNS0_18basic_format_specsIcEE
00000000 l    d  .literal._ZN3fmt2v68internal18arg_formatter_baseINS0_12buffer_rangeIcEENS1_13error_handlerEE5writeEPKc	00000000 .literal._ZN3fmt2v68internal18arg_formatter_baseINS0_12buffer_rangeIcEENS1_13error_handlerEE5writeEPKc
00000000 l    d  .literal._ZN3fmt2v68internal12basic_writerINS0_12buffer_rangeIcEEE12write_paddedINS1_16nonfinite_writerIcEEEEvRKNS0_18basic_format_specsIcEEOT_	00000000 .literal._ZN3fmt2v68internal12basic_writerINS0_12buffer_rangeIcEEE12write_paddedINS1_16nonfinite_writerIcEEEEvRKNS0_18basic_format_specsIcEEOT_
00000000 l    d  .literal._ZN3fmt2v619basic_memory_bufferIcLj500ESaIcEE4growEj	00000000 .literal._ZN3fmt2v619basic_memory_bufferIcLj500ESaIcEE4growEj
00000000 l    d  .literal._ZN3fmt2v68internal12basic_writerINS0_12buffer_rangeIcEEE12write_paddedINS1_18arg_formatter_baseIS4_NS1_13error_handlerEE11char_writerEEEvRKNS0_18basic_format_specsIcEEOT_	00000000 .literal._ZN3fmt2v68internal12basic_writerINS0_12buffer_rangeIcEEE12write_paddedINS1_18arg_formatter_baseIS4_NS1_13error_handlerEE11char_writerEEEvRKNS0_18basic_format_specsIcEEOT_
00000000 l    d  .literal._ZN3fmt2v68internal18arg_formatter_baseINS0_12buffer_rangeIcEENS1_13error_handlerEE10write_charEc	00000000 .literal._ZN3fmt2v68internal18arg_formatter_baseINS0_12buffer_rangeIcEENS1_13error_handlerEE10write_charEc
00000000 l    d  .literal._ZNK3fmt2v68internal12float_writerIcE8prettifyINS1_17counting_iteratorEEET_S6_	00000000 .literal._ZNK3fmt2v68internal12float_writerIcE8prettifyINS1_17counting_iteratorEEET_S6_
00000000 l    d  .literal._ZN3fmt2v68internal12float_writerIcEC5EPKciiNS1_11float_specsEc	00000000 .literal._ZN3fmt2v68internal12float_writerIcEC5EPKciiNS1_11float_specsEc
00000000 l    d  .literal._ZNK3fmt2v68internal12float_writerIcE8prettifyIPcEET_S6_	00000000 .literal._ZNK3fmt2v68internal12float_writerIcE8prettifyIPcEET_S6_
00000000 l    d  .literal._ZN3fmt2v68internal12float_writerIcEclIRPcEEvOT_	00000000 .literal._ZN3fmt2v68internal12float_writerIcEclIRPcEEvOT_
00000000 l    d  .literal._ZN3fmt2v68internal12basic_writerINS0_12buffer_rangeIcEEE12write_paddedINS1_12float_writerIcEEEEvRKNS0_18basic_format_specsIcEEOT_	00000000 .literal._ZN3fmt2v68internal12basic_writerINS0_12buffer_rangeIcEEE12write_paddedINS1_12float_writerIcEEEEvRKNS0_18basic_format_specsIcEEOT_
00000000 l    d  .literal._ZN3fmt2v68internal12basic_writerINS0_12buffer_rangeIcEEE5writeIfLi0EEEvT_NS0_18basic_format_specsIcEE	00000000 .literal._ZN3fmt2v68internal12basic_writerINS0_12buffer_rangeIcEEE5writeIfLi0EEEvT_NS0_18basic_format_specsIcEE
00000000 l    d  .literal._ZN3fmt2v68internal12basic_writerINS0_12buffer_rangeIcEEE5writeIdLi0EEEvT_NS0_18basic_format_specsIcEE	00000000 .literal._ZN3fmt2v68internal12basic_writerINS0_12buffer_rangeIcEEE5writeIdLi0EEEvT_NS0_18basic_format_specsIcEE
00000000 l    d  .literal._ZN3fmt2v68internal12basic_writerINS0_12buffer_rangeIcEEE5writeIeLi0EEEvT_NS0_18basic_format_specsIcEE	00000000 .literal._ZN3fmt2v68internal12basic_writerINS0_12buffer_rangeIcEEE5writeIeLi0EEEvT_NS0_18basic_format_specsIcEE
00000000 l    d  .literal._ZN3fmt2v68internal11format_uintILj4EcjEEPT0_S4_T1_ib	00000000 .literal._ZN3fmt2v68internal11format_uintILj4EcjEEPT0_S4_T1_ib
00000000 l    d  .literal._ZNK3fmt2v68internal12basic_writerINS0_12buffer_rangeIcEEE14pointer_writerIjEclIRPcEEvOT_	00000000 .literal._ZNK3fmt2v68internal12basic_writerINS0_12buffer_rangeIcEEE14pointer_writerIjEclIRPcEEvOT_
00000000 l    d  .literal._ZN3fmt2v68internal12basic_writerINS0_12buffer_rangeIcEEE12write_paddedIRNS5_14pointer_writerIjEEEEvRKNS0_18basic_format_specsIcEEOT_	00000000 .literal._ZN3fmt2v68internal12basic_writerINS0_12buffer_rangeIcEEE12write_paddedIRNS5_14pointer_writerIjEEEEvRKNS0_18basic_format_specsIcEEOT_
00000000 l    d  .literal._ZN3fmt2v68internal12basic_writerINS0_12buffer_rangeIcEEE13write_pointerIjEEvT_PKNS0_18basic_format_specsIcEE	00000000 .literal._ZN3fmt2v68internal12basic_writerINS0_12buffer_rangeIcEEE13write_pointerIjEEvT_PKNS0_18basic_format_specsIcEE
00000000 l    d  .literal._ZN3fmt2v68internal18arg_formatter_baseINS0_12buffer_rangeIcEENS1_13error_handlerEE13write_pointerEPKv	00000000 .literal._ZN3fmt2v68internal18arg_formatter_baseINS0_12buffer_rangeIcEENS1_13error_handlerEE13write_pointerEPKv
00000000 l    d  .literal._ZN3fmt2v616visit_format_argINS0_8internal13width_checkerINS2_13error_handlerEEENS0_20basic_format_contextISt20back_insert_iteratorINS2_6bufferIcEEEcEEEEDTclfp_Li0EEEOT_RKNS0_16basic_format_argIT0_EE	00000000 .literal._ZN3fmt2v616visit_format_argINS0_8internal13width_checkerINS2_13error_handlerEEENS0_20basic_format_contextISt20back_insert_iteratorINS2_6bufferIcEEEcEEEEDTclfp_Li0EEEOT_RKNS0_16basic_format_argIT0_EE
00000000 l    d  .literal._ZN3fmt2v68internal16get_dynamic_specINS1_13width_checkerENS0_16basic_format_argINS0_20basic_format_contextISt20back_insert_iteratorINS1_6bufferIcEEEcEEEENS1_13error_handlerEEEiT0_T1_	00000000 .literal._ZN3fmt2v68internal16get_dynamic_specINS1_13width_checkerENS0_16basic_format_argINS0_20basic_format_contextISt20back_insert_iteratorINS1_6bufferIcEEEcEEEENS1_13error_handlerEEEiT0_T1_
00000000 l    d  .literal._ZN3fmt2v68internal12parse_arg_idIcNS1_13width_adapterIRNS1_13specs_checkerINS1_13specs_handlerINS0_26basic_format_parse_contextIcNS1_13error_handlerEEENS0_20basic_format_contextISt20back_insert_iteratorINS1_6bufferIcEEEcEEEEEEcEEEEPKT_SL_SL_OT0_	00000000 .literal._ZN3fmt2v68internal12parse_arg_idIcNS1_13width_adapterIRNS1_13specs_checkerINS1_13specs_handlerINS0_26basic_format_parse_contextIcNS1_13error_handlerEEENS0_20basic_format_contextISt20back_insert_iteratorINS1_6bufferIcEEEcEEEEEEcEEEEPKT_SL_SL_OT0_
00000000 l    d  .literal._ZN3fmt2v616visit_format_argINS0_8internal17precision_checkerINS2_13error_handlerEEENS0_20basic_format_contextISt20back_insert_iteratorINS2_6bufferIcEEEcEEEEDTclfp_Li0EEEOT_RKNS0_16basic_format_argIT0_EE	00000000 .literal._ZN3fmt2v616visit_format_argINS0_8internal17precision_checkerINS2_13error_handlerEEENS0_20basic_format_contextISt20back_insert_iteratorINS2_6bufferIcEEEcEEEEDTclfp_Li0EEEOT_RKNS0_16basic_format_argIT0_EE
00000000 l    d  .literal._ZN3fmt2v68internal16get_dynamic_specINS1_17precision_checkerENS0_16basic_format_argINS0_20basic_format_contextISt20back_insert_iteratorINS1_6bufferIcEEEcEEEENS1_13error_handlerEEEiT0_T1_	00000000 .literal._ZN3fmt2v68internal16get_dynamic_specINS1_17precision_checkerENS0_16basic_format_argINS0_20basic_format_contextISt20back_insert_iteratorINS1_6bufferIcEEEcEEEENS1_13error_handlerEEEiT0_T1_
00000000 l    d  .literal._ZN3fmt2v68internal12parse_arg_idIcNS1_17precision_adapterIRNS1_13specs_checkerINS1_13specs_handlerINS0_26basic_format_parse_contextIcNS1_13error_handlerEEENS0_20basic_format_contextISt20back_insert_iteratorINS1_6bufferIcEEEcEEEEEEcEEEEPKT_SL_SL_OT0_	00000000 .literal._ZN3fmt2v68internal12parse_arg_idIcNS1_17precision_adapterIRNS1_13specs_checkerINS1_13specs_handlerINS0_26basic_format_parse_contextIcNS1_13error_handlerEEENS0_20basic_format_contextISt20back_insert_iteratorINS1_6bufferIcEEEcEEEEEEcEEEEPKT_SL_SL_OT0_
00000000 l    d  .literal._ZN3fmt2v68internal15parse_precisionIcRNS1_13specs_checkerINS1_13specs_handlerINS0_26basic_format_parse_contextIcNS1_13error_handlerEEENS0_20basic_format_contextISt20back_insert_iteratorINS1_6bufferIcEEEcEEEEEEEEPKT_SJ_SJ_OT0_	00000000 .literal._ZN3fmt2v68internal15parse_precisionIcRNS1_13specs_checkerINS1_13specs_handlerINS0_26basic_format_parse_contextIcNS1_13error_handlerEEENS0_20basic_format_contextISt20back_insert_iteratorINS1_6bufferIcEEEcEEEEEEEEPKT_SJ_SJ_OT0_
00000000 l    d  .literal._ZN3fmt2v68internal18parse_format_specsIcRNS1_13specs_checkerINS1_13specs_handlerINS0_26basic_format_parse_contextIcNS1_13error_handlerEEENS0_20basic_format_contextISt20back_insert_iteratorINS1_6bufferIcEEEcEEEEEEEEPKT_SJ_SJ_OT0_	00000000 .literal._ZN3fmt2v68internal18parse_format_specsIcRNS1_13specs_checkerINS1_13specs_handlerINS0_26basic_format_parse_contextIcNS1_13error_handlerEEENS0_20basic_format_contextISt20back_insert_iteratorINS1_6bufferIcEEEcEEEEEEEEPKT_SJ_SJ_OT0_
00000000 l    d  .literal._ZNK3fmt2v68internal12basic_writerINS0_12buffer_rangeIcEEE17padded_int_writerINS5_10int_writerIiNS0_18basic_format_specsIcEEE10dec_writerEEclIRPcEEvOT_	00000000 .literal._ZNK3fmt2v68internal12basic_writerINS0_12buffer_rangeIcEEE17padded_int_writerINS5_10int_writerIiNS0_18basic_format_specsIcEEE10dec_writerEEclIRPcEEvOT_
00000000 l    d  .literal._ZN3fmt2v68internal12basic_writerINS0_12buffer_rangeIcEEE12write_paddedINS5_17padded_int_writerINS5_10int_writerIiNS0_18basic_format_specsIcEEE10dec_writerEEEEEvRKSA_OT_	00000000 .literal._ZN3fmt2v68internal12basic_writerINS0_12buffer_rangeIcEEE12write_paddedINS5_17padded_int_writerINS5_10int_writerIiNS0_18basic_format_specsIcEEE10dec_writerEEEEEvRKSA_OT_
00000000 l    d  .literal._ZN3fmt2v68internal12basic_writerINS0_12buffer_rangeIcEEE10int_writerIiNS0_18basic_format_specsIcEEE6on_decEv	00000000 .literal._ZN3fmt2v68internal12basic_writerINS0_12buffer_rangeIcEEE10int_writerIiNS0_18basic_format_specsIcEEE6on_decEv
00000000 l    d  .literal._ZNK3fmt2v68internal12basic_writerINS0_12buffer_rangeIcEEE17padded_int_writerINS5_10int_writerIiNS0_18basic_format_specsIcEEE10hex_writerEEclIRPcEEvOT_	00000000 .literal._ZNK3fmt2v68internal12basic_writerINS0_12buffer_rangeIcEEE17padded_int_writerINS5_10int_writerIiNS0_18basic_format_specsIcEEE10hex_writerEEclIRPcEEvOT_
00000000 l    d  .literal._ZN3fmt2v68internal12basic_writerINS0_12buffer_rangeIcEEE12write_paddedINS5_17padded_int_writerINS5_10int_writerIiNS0_18basic_format_specsIcEEE10hex_writerEEEEEvRKSA_OT_	00000000 .literal._ZN3fmt2v68internal12basic_writerINS0_12buffer_rangeIcEEE12write_paddedINS5_17padded_int_writerINS5_10int_writerIiNS0_18basic_format_specsIcEEE10hex_writerEEEEEvRKSA_OT_
00000000 l    d  .literal._ZN3fmt2v68internal12basic_writerINS0_12buffer_rangeIcEEE10int_writerIiNS0_18basic_format_specsIcEEE6on_hexEv	00000000 .literal._ZN3fmt2v68internal12basic_writerINS0_12buffer_rangeIcEEE10int_writerIiNS0_18basic_format_specsIcEEE6on_hexEv
00000000 l    d  .literal._ZNK3fmt2v68internal12basic_writerINS0_12buffer_rangeIcEEE17padded_int_writerINS5_10int_writerIiNS0_18basic_format_specsIcEEE10bin_writerILi1EEEEclIRPcEEvOT_	00000000 .literal._ZNK3fmt2v68internal12basic_writerINS0_12buffer_rangeIcEEE17padded_int_writerINS5_10int_writerIiNS0_18basic_format_specsIcEEE10bin_writerILi1EEEEclIRPcEEvOT_
00000000 l    d  .literal._ZN3fmt2v68internal12basic_writerINS0_12buffer_rangeIcEEE12write_paddedINS5_17padded_int_writerINS5_10int_writerIiNS0_18basic_format_specsIcEEE10bin_writerILi1EEEEEEEvRKSA_OT_	00000000 .literal._ZN3fmt2v68internal12basic_writerINS0_12buffer_rangeIcEEE12write_paddedINS5_17padded_int_writerINS5_10int_writerIiNS0_18basic_format_specsIcEEE10bin_writerILi1EEEEEEEvRKSA_OT_
00000000 l    d  .literal._ZN3fmt2v68internal12basic_writerINS0_12buffer_rangeIcEEE10int_writerIiNS0_18basic_format_specsIcEEE6on_binEv	00000000 .literal._ZN3fmt2v68internal12basic_writerINS0_12buffer_rangeIcEEE10int_writerIiNS0_18basic_format_specsIcEEE6on_binEv
00000000 l    d  .literal._ZNK3fmt2v68internal12basic_writerINS0_12buffer_rangeIcEEE17padded_int_writerINS5_10int_writerIiNS0_18basic_format_specsIcEEE10bin_writerILi3EEEEclIRPcEEvOT_	00000000 .literal._ZNK3fmt2v68internal12basic_writerINS0_12buffer_rangeIcEEE17padded_int_writerINS5_10int_writerIiNS0_18basic_format_specsIcEEE10bin_writerILi3EEEEclIRPcEEvOT_
00000000 l    d  .literal._ZN3fmt2v68internal12basic_writerINS0_12buffer_rangeIcEEE12write_paddedINS5_17padded_int_writerINS5_10int_writerIiNS0_18basic_format_specsIcEEE10bin_writerILi3EEEEEEEvRKSA_OT_	00000000 .literal._ZN3fmt2v68internal12basic_writerINS0_12buffer_rangeIcEEE12write_paddedINS5_17padded_int_writerINS5_10int_writerIiNS0_18basic_format_specsIcEEE10bin_writerILi3EEEEEEEvRKSA_OT_
00000000 l    d  .literal._ZN3fmt2v68internal12basic_writerINS0_12buffer_rangeIcEEE10int_writerIiNS0_18basic_format_specsIcEEE6on_octEv	00000000 .literal._ZN3fmt2v68internal12basic_writerINS0_12buffer_rangeIcEEE10int_writerIiNS0_18basic_format_specsIcEEE6on_octEv
00000000 l    d  .literal._ZNK3fmt2v68internal12basic_writerINS0_12buffer_rangeIcEEE17padded_int_writerINS5_10int_writerIjNS0_18basic_format_specsIcEEE10dec_writerEEclIRPcEEvOT_	00000000 .literal._ZNK3fmt2v68internal12basic_writerINS0_12buffer_rangeIcEEE17padded_int_writerINS5_10int_writerIjNS0_18basic_format_specsIcEEE10dec_writerEEclIRPcEEvOT_
00000000 l    d  .literal._ZN3fmt2v68internal12basic_writerINS0_12buffer_rangeIcEEE12write_paddedINS5_17padded_int_writerINS5_10int_writerIjNS0_18basic_format_specsIcEEE10dec_writerEEEEEvRKSA_OT_	00000000 .literal._ZN3fmt2v68internal12basic_writerINS0_12buffer_rangeIcEEE12write_paddedINS5_17padded_int_writerINS5_10int_writerIjNS0_18basic_format_specsIcEEE10dec_writerEEEEEvRKSA_OT_
00000000 l    d  .literal._ZN3fmt2v68internal12basic_writerINS0_12buffer_rangeIcEEE10int_writerIjNS0_18basic_format_specsIcEEE6on_decEv	00000000 .literal._ZN3fmt2v68internal12basic_writerINS0_12buffer_rangeIcEEE10int_writerIjNS0_18basic_format_specsIcEEE6on_decEv
00000000 l    d  .literal._ZNK3fmt2v68internal12basic_writerINS0_12buffer_rangeIcEEE17padded_int_writerINS5_10int_writerIjNS0_18basic_format_specsIcEEE10hex_writerEEclIRPcEEvOT_	00000000 .literal._ZNK3fmt2v68internal12basic_writerINS0_12buffer_rangeIcEEE17padded_int_writerINS5_10int_writerIjNS0_18basic_format_specsIcEEE10hex_writerEEclIRPcEEvOT_
00000000 l    d  .literal._ZN3fmt2v68internal12basic_writerINS0_12buffer_rangeIcEEE12write_paddedINS5_17padded_int_writerINS5_10int_writerIjNS0_18basic_format_specsIcEEE10hex_writerEEEEEvRKSA_OT_	00000000 .literal._ZN3fmt2v68internal12basic_writerINS0_12buffer_rangeIcEEE12write_paddedINS5_17padded_int_writerINS5_10int_writerIjNS0_18basic_format_specsIcEEE10hex_writerEEEEEvRKSA_OT_
00000000 l    d  .literal._ZN3fmt2v68internal12basic_writerINS0_12buffer_rangeIcEEE10int_writerIjNS0_18basic_format_specsIcEEE6on_hexEv	00000000 .literal._ZN3fmt2v68internal12basic_writerINS0_12buffer_rangeIcEEE10int_writerIjNS0_18basic_format_specsIcEEE6on_hexEv
00000000 l    d  .literal._ZNK3fmt2v68internal12basic_writerINS0_12buffer_rangeIcEEE17padded_int_writerINS5_10int_writerIjNS0_18basic_format_specsIcEEE10bin_writerILi1EEEEclIRPcEEvOT_	00000000 .literal._ZNK3fmt2v68internal12basic_writerINS0_12buffer_rangeIcEEE17padded_int_writerINS5_10int_writerIjNS0_18basic_format_specsIcEEE10bin_writerILi1EEEEclIRPcEEvOT_
00000000 l    d  .literal._ZN3fmt2v68internal12basic_writerINS0_12buffer_rangeIcEEE12write_paddedINS5_17padded_int_writerINS5_10int_writerIjNS0_18basic_format_specsIcEEE10bin_writerILi1EEEEEEEvRKSA_OT_	00000000 .literal._ZN3fmt2v68internal12basic_writerINS0_12buffer_rangeIcEEE12write_paddedINS5_17padded_int_writerINS5_10int_writerIjNS0_18basic_format_specsIcEEE10bin_writerILi1EEEEEEEvRKSA_OT_
00000000 l    d  .literal._ZN3fmt2v68internal12basic_writerINS0_12buffer_rangeIcEEE10int_writerIjNS0_18basic_format_specsIcEEE6on_binEv	00000000 .literal._ZN3fmt2v68internal12basic_writerINS0_12buffer_rangeIcEEE10int_writerIjNS0_18basic_format_specsIcEEE6on_binEv
00000000 l    d  .literal._ZNK3fmt2v68internal12basic_writerINS0_12buffer_rangeIcEEE17padded_int_writerINS5_10int_writerIjNS0_18basic_format_specsIcEEE10bin_writerILi3EEEEclIRPcEEvOT_	00000000 .literal._ZNK3fmt2v68internal12basic_writerINS0_12buffer_rangeIcEEE17padded_int_writerINS5_10int_writerIjNS0_18basic_format_specsIcEEE10bin_writerILi3EEEEclIRPcEEvOT_
00000000 l    d  .literal._ZN3fmt2v68internal12basic_writerINS0_12buffer_rangeIcEEE12write_paddedINS5_17padded_int_writerINS5_10int_writerIjNS0_18basic_format_specsIcEEE10bin_writerILi3EEEEEEEvRKSA_OT_	00000000 .literal._ZN3fmt2v68internal12basic_writerINS0_12buffer_rangeIcEEE12write_paddedINS5_17padded_int_writerINS5_10int_writerIjNS0_18basic_format_specsIcEEE10bin_writerILi3EEEEEEEvRKSA_OT_
00000000 l    d  .literal._ZN3fmt2v68internal12basic_writerINS0_12buffer_rangeIcEEE10int_writerIjNS0_18basic_format_specsIcEEE6on_octEv	00000000 .literal._ZN3fmt2v68internal12basic_writerINS0_12buffer_rangeIcEEE10int_writerIjNS0_18basic_format_specsIcEEE6on_octEv
00000000 l    d  .literal._ZNK3fmt2v68internal12basic_writerINS0_12buffer_rangeIcEEE17padded_int_writerINS5_10int_writerIxNS0_18basic_format_specsIcEEE10dec_writerEEclIRPcEEvOT_	00000000 .literal._ZNK3fmt2v68internal12basic_writerINS0_12buffer_rangeIcEEE17padded_int_writerINS5_10int_writerIxNS0_18basic_format_specsIcEEE10dec_writerEEclIRPcEEvOT_
00000000 l    d  .literal._ZN3fmt2v68internal12basic_writerINS0_12buffer_rangeIcEEE12write_paddedINS5_17padded_int_writerINS5_10int_writerIxNS0_18basic_format_specsIcEEE10dec_writerEEEEEvRKSA_OT_	00000000 .literal._ZN3fmt2v68internal12basic_writerINS0_12buffer_rangeIcEEE12write_paddedINS5_17padded_int_writerINS5_10int_writerIxNS0_18basic_format_specsIcEEE10dec_writerEEEEEvRKSA_OT_
00000000 l    d  .literal._ZN3fmt2v68internal12basic_writerINS0_12buffer_rangeIcEEE10int_writerIxNS0_18basic_format_specsIcEEE6on_decEv	00000000 .literal._ZN3fmt2v68internal12basic_writerINS0_12buffer_rangeIcEEE10int_writerIxNS0_18basic_format_specsIcEEE6on_decEv
00000000 l    d  .literal._ZNK3fmt2v68internal12basic_writerINS0_12buffer_rangeIcEEE17padded_int_writerINS5_10int_writerIxNS0_18basic_format_specsIcEEE10hex_writerEEclIRPcEEvOT_	00000000 .literal._ZNK3fmt2v68internal12basic_writerINS0_12buffer_rangeIcEEE17padded_int_writerINS5_10int_writerIxNS0_18basic_format_specsIcEEE10hex_writerEEclIRPcEEvOT_
00000000 l    d  .literal._ZN3fmt2v68internal12basic_writerINS0_12buffer_rangeIcEEE12write_paddedINS5_17padded_int_writerINS5_10int_writerIxNS0_18basic_format_specsIcEEE10hex_writerEEEEEvRKSA_OT_	00000000 .literal._ZN3fmt2v68internal12basic_writerINS0_12buffer_rangeIcEEE12write_paddedINS5_17padded_int_writerINS5_10int_writerIxNS0_18basic_format_specsIcEEE10hex_writerEEEEEvRKSA_OT_
00000000 l    d  .literal._ZN3fmt2v68internal12basic_writerINS0_12buffer_rangeIcEEE10int_writerIxNS0_18basic_format_specsIcEEE6on_hexEv	00000000 .literal._ZN3fmt2v68internal12basic_writerINS0_12buffer_rangeIcEEE10int_writerIxNS0_18basic_format_specsIcEEE6on_hexEv
00000000 l    d  .literal._ZNK3fmt2v68internal12basic_writerINS0_12buffer_rangeIcEEE17padded_int_writerINS5_10int_writerIxNS0_18basic_format_specsIcEEE10bin_writerILi1EEEEclIRPcEEvOT_	00000000 .literal._ZNK3fmt2v68internal12basic_writerINS0_12buffer_rangeIcEEE17padded_int_writerINS5_10int_writerIxNS0_18basic_format_specsIcEEE10bin_writerILi1EEEEclIRPcEEvOT_
00000000 l    d  .literal._ZN3fmt2v68internal12basic_writerINS0_12buffer_rangeIcEEE12write_paddedINS5_17padded_int_writerINS5_10int_writerIxNS0_18basic_format_specsIcEEE10bin_writerILi1EEEEEEEvRKSA_OT_	00000000 .literal._ZN3fmt2v68internal12basic_writerINS0_12buffer_rangeIcEEE12write_paddedINS5_17padded_int_writerINS5_10int_writerIxNS0_18basic_format_specsIcEEE10bin_writerILi1EEEEEEEvRKSA_OT_
00000000 l    d  .literal._ZN3fmt2v68internal12basic_writerINS0_12buffer_rangeIcEEE10int_writerIxNS0_18basic_format_specsIcEEE6on_binEv	00000000 .literal._ZN3fmt2v68internal12basic_writerINS0_12buffer_rangeIcEEE10int_writerIxNS0_18basic_format_specsIcEEE6on_binEv
00000000 l    d  .literal._ZNK3fmt2v68internal12basic_writerINS0_12buffer_rangeIcEEE17padded_int_writerINS5_10int_writerIxNS0_18basic_format_specsIcEEE10bin_writerILi3EEEEclIRPcEEvOT_	00000000 .literal._ZNK3fmt2v68internal12basic_writerINS0_12buffer_rangeIcEEE17padded_int_writerINS5_10int_writerIxNS0_18basic_format_specsIcEEE10bin_writerILi3EEEEclIRPcEEvOT_
00000000 l    d  .literal._ZN3fmt2v68internal12basic_writerINS0_12buffer_rangeIcEEE12write_paddedINS5_17padded_int_writerINS5_10int_writerIxNS0_18basic_format_specsIcEEE10bin_writerILi3EEEEEEEvRKSA_OT_	00000000 .literal._ZN3fmt2v68internal12basic_writerINS0_12buffer_rangeIcEEE12write_paddedINS5_17padded_int_writerINS5_10int_writerIxNS0_18basic_format_specsIcEEE10bin_writerILi3EEEEEEEvRKSA_OT_
00000000 l    d  .literal._ZN3fmt2v68internal12basic_writerINS0_12buffer_rangeIcEEE10int_writerIxNS0_18basic_format_specsIcEEE6on_octEv	00000000 .literal._ZN3fmt2v68internal12basic_writerINS0_12buffer_rangeIcEEE10int_writerIxNS0_18basic_format_specsIcEEE6on_octEv
00000000 l    d  .literal._ZNK3fmt2v68internal12basic_writerINS0_12buffer_rangeIcEEE17padded_int_writerINS5_10int_writerIyNS0_18basic_format_specsIcEEE10dec_writerEEclIRPcEEvOT_	00000000 .literal._ZNK3fmt2v68internal12basic_writerINS0_12buffer_rangeIcEEE17padded_int_writerINS5_10int_writerIyNS0_18basic_format_specsIcEEE10dec_writerEEclIRPcEEvOT_
00000000 l    d  .literal._ZN3fmt2v68internal12basic_writerINS0_12buffer_rangeIcEEE12write_paddedINS5_17padded_int_writerINS5_10int_writerIyNS0_18basic_format_specsIcEEE10dec_writerEEEEEvRKSA_OT_	00000000 .literal._ZN3fmt2v68internal12basic_writerINS0_12buffer_rangeIcEEE12write_paddedINS5_17padded_int_writerINS5_10int_writerIyNS0_18basic_format_specsIcEEE10dec_writerEEEEEvRKSA_OT_
00000000 l    d  .literal._ZN3fmt2v68internal12basic_writerINS0_12buffer_rangeIcEEE10int_writerIyNS0_18basic_format_specsIcEEE6on_decEv	00000000 .literal._ZN3fmt2v68internal12basic_writerINS0_12buffer_rangeIcEEE10int_writerIyNS0_18basic_format_specsIcEEE6on_decEv
00000000 l    d  .literal._ZNK3fmt2v68internal12basic_writerINS0_12buffer_rangeIcEEE17padded_int_writerINS5_10int_writerIyNS0_18basic_format_specsIcEEE10hex_writerEEclIRPcEEvOT_	00000000 .literal._ZNK3fmt2v68internal12basic_writerINS0_12buffer_rangeIcEEE17padded_int_writerINS5_10int_writerIyNS0_18basic_format_specsIcEEE10hex_writerEEclIRPcEEvOT_
00000000 l    d  .literal._ZN3fmt2v68internal12basic_writerINS0_12buffer_rangeIcEEE12write_paddedINS5_17padded_int_writerINS5_10int_writerIyNS0_18basic_format_specsIcEEE10hex_writerEEEEEvRKSA_OT_	00000000 .literal._ZN3fmt2v68internal12basic_writerINS0_12buffer_rangeIcEEE12write_paddedINS5_17padded_int_writerINS5_10int_writerIyNS0_18basic_format_specsIcEEE10hex_writerEEEEEvRKSA_OT_
00000000 l    d  .literal._ZN3fmt2v68internal12basic_writerINS0_12buffer_rangeIcEEE10int_writerIyNS0_18basic_format_specsIcEEE6on_hexEv	00000000 .literal._ZN3fmt2v68internal12basic_writerINS0_12buffer_rangeIcEEE10int_writerIyNS0_18basic_format_specsIcEEE6on_hexEv
00000000 l    d  .literal._ZNK3fmt2v68internal12basic_writerINS0_12buffer_rangeIcEEE17padded_int_writerINS5_10int_writerIyNS0_18basic_format_specsIcEEE10bin_writerILi1EEEEclIRPcEEvOT_	00000000 .literal._ZNK3fmt2v68internal12basic_writerINS0_12buffer_rangeIcEEE17padded_int_writerINS5_10int_writerIyNS0_18basic_format_specsIcEEE10bin_writerILi1EEEEclIRPcEEvOT_
00000000 l    d  .literal._ZN3fmt2v68internal12basic_writerINS0_12buffer_rangeIcEEE12write_paddedINS5_17padded_int_writerINS5_10int_writerIyNS0_18basic_format_specsIcEEE10bin_writerILi1EEEEEEEvRKSA_OT_	00000000 .literal._ZN3fmt2v68internal12basic_writerINS0_12buffer_rangeIcEEE12write_paddedINS5_17padded_int_writerINS5_10int_writerIyNS0_18basic_format_specsIcEEE10bin_writerILi1EEEEEEEvRKSA_OT_
00000000 l    d  .literal._ZN3fmt2v68internal12basic_writerINS0_12buffer_rangeIcEEE10int_writerIyNS0_18basic_format_specsIcEEE6on_binEv	00000000 .literal._ZN3fmt2v68internal12basic_writerINS0_12buffer_rangeIcEEE10int_writerIyNS0_18basic_format_specsIcEEE6on_binEv
00000000 l    d  .literal._ZNK3fmt2v68internal12basic_writerINS0_12buffer_rangeIcEEE17padded_int_writerINS5_10int_writerIyNS0_18basic_format_specsIcEEE10bin_writerILi3EEEEclIRPcEEvOT_	00000000 .literal._ZNK3fmt2v68internal12basic_writerINS0_12buffer_rangeIcEEE17padded_int_writerINS5_10int_writerIyNS0_18basic_format_specsIcEEE10bin_writerILi3EEEEclIRPcEEvOT_
00000000 l    d  .literal._ZN3fmt2v68internal12basic_writerINS0_12buffer_rangeIcEEE12write_paddedINS5_17padded_int_writerINS5_10int_writerIyNS0_18basic_format_specsIcEEE10bin_writerILi3EEEEEEEvRKSA_OT_	00000000 .literal._ZN3fmt2v68internal12basic_writerINS0_12buffer_rangeIcEEE12write_paddedINS5_17padded_int_writerINS5_10int_writerIyNS0_18basic_format_specsIcEEE10bin_writerILi3EEEEEEEvRKSA_OT_
00000000 l    d  .literal._ZN3fmt2v68internal12basic_writerINS0_12buffer_rangeIcEEE10int_writerIyNS0_18basic_format_specsIcEEE6on_octEv	00000000 .literal._ZN3fmt2v68internal12basic_writerINS0_12buffer_rangeIcEEE10int_writerIyNS0_18basic_format_specsIcEEE6on_octEv
00000000 l    d  .literal._ZZNK3fmt2v68internal12basic_writerINS0_12buffer_rangeIcEEE10int_writerIiNS0_18basic_format_specsIcEEE10num_writerclIRPcEEvOT_ENKUlSD_E_clESD_	00000000 .literal._ZZNK3fmt2v68internal12basic_writerINS0_12buffer_rangeIcEEE10int_writerIiNS0_18basic_format_specsIcEEE10num_writerclIRPcEEvOT_ENKUlSD_E_clESD_
00000000 l    d  .literal._ZNK3fmt2v68internal12basic_writerINS0_12buffer_rangeIcEEE10int_writerIiNS0_18basic_format_specsIcEEE10num_writerclIRPcEEvOT_	00000000 .literal._ZNK3fmt2v68internal12basic_writerINS0_12buffer_rangeIcEEE10int_writerIiNS0_18basic_format_specsIcEEE10num_writerclIRPcEEvOT_
00000000 l    d  .literal._ZNK3fmt2v68internal12basic_writerINS0_12buffer_rangeIcEEE17padded_int_writerINS5_10int_writerIiNS0_18basic_format_specsIcEEE10num_writerEEclIRPcEEvOT_	00000000 .literal._ZNK3fmt2v68internal12basic_writerINS0_12buffer_rangeIcEEE17padded_int_writerINS5_10int_writerIiNS0_18basic_format_specsIcEEE10num_writerEEclIRPcEEvOT_
00000000 l    d  .literal._ZN3fmt2v68internal12basic_writerINS0_12buffer_rangeIcEEE12write_paddedINS5_17padded_int_writerINS5_10int_writerIiNS0_18basic_format_specsIcEEE10num_writerEEEEEvRKSA_OT_	00000000 .literal._ZN3fmt2v68internal12basic_writerINS0_12buffer_rangeIcEEE12write_paddedINS5_17padded_int_writerINS5_10int_writerIiNS0_18basic_format_specsIcEEE10num_writerEEEEEvRKSA_OT_
00000000 l    d  .literal._ZN3fmt2v68internal12basic_writerINS0_12buffer_rangeIcEEE10int_writerIiNS0_18basic_format_specsIcEEE6on_numEv	00000000 .literal._ZN3fmt2v68internal12basic_writerINS0_12buffer_rangeIcEEE10int_writerIiNS0_18basic_format_specsIcEEE6on_numEv
00000000 l    d  .literal._ZN3fmt2v68internal20handle_int_type_specINS1_12basic_writerINS0_12buffer_rangeIcEEE10int_writerIiNS0_18basic_format_specsIcEEEEEEvcOT_	00000000 .literal._ZN3fmt2v68internal20handle_int_type_specINS1_12basic_writerINS0_12buffer_rangeIcEEE10int_writerIiNS0_18basic_format_specsIcEEEEEEvcOT_
00000000 l    d  .literal._ZN3fmt2v68internal18arg_formatter_baseINS0_12buffer_rangeIcEENS1_13error_handlerEEclIiLi0EEESt20back_insert_iteratorINS1_6bufferIcEEET_	00000000 .literal._ZN3fmt2v68internal18arg_formatter_baseINS0_12buffer_rangeIcEENS1_13error_handlerEEclIiLi0EEESt20back_insert_iteratorINS1_6bufferIcEEET_
00000000 l    d  .literal._ZZNK3fmt2v68internal12basic_writerINS0_12buffer_rangeIcEEE10int_writerIjNS0_18basic_format_specsIcEEE10num_writerclIRPcEEvOT_ENKUlSD_E_clESD_	00000000 .literal._ZZNK3fmt2v68internal12basic_writerINS0_12buffer_rangeIcEEE10int_writerIjNS0_18basic_format_specsIcEEE10num_writerclIRPcEEvOT_ENKUlSD_E_clESD_
00000000 l    d  .literal._ZNK3fmt2v68internal12basic_writerINS0_12buffer_rangeIcEEE10int_writerIjNS0_18basic_format_specsIcEEE10num_writerclIRPcEEvOT_	00000000 .literal._ZNK3fmt2v68internal12basic_writerINS0_12buffer_rangeIcEEE10int_writerIjNS0_18basic_format_specsIcEEE10num_writerclIRPcEEvOT_
00000000 l    d  .literal._ZNK3fmt2v68internal12basic_writerINS0_12buffer_rangeIcEEE17padded_int_writerINS5_10int_writerIjNS0_18basic_format_specsIcEEE10num_writerEEclIRPcEEvOT_	00000000 .literal._ZNK3fmt2v68internal12basic_writerINS0_12buffer_rangeIcEEE17padded_int_writerINS5_10int_writerIjNS0_18basic_format_specsIcEEE10num_writerEEclIRPcEEvOT_
00000000 l    d  .literal._ZN3fmt2v68internal12basic_writerINS0_12buffer_rangeIcEEE12write_paddedINS5_17padded_int_writerINS5_10int_writerIjNS0_18basic_format_specsIcEEE10num_writerEEEEEvRKSA_OT_	00000000 .literal._ZN3fmt2v68internal12basic_writerINS0_12buffer_rangeIcEEE12write_paddedINS5_17padded_int_writerINS5_10int_writerIjNS0_18basic_format_specsIcEEE10num_writerEEEEEvRKSA_OT_
00000000 l    d  .literal._ZN3fmt2v68internal12basic_writerINS0_12buffer_rangeIcEEE10int_writerIjNS0_18basic_format_specsIcEEE6on_numEv	00000000 .literal._ZN3fmt2v68internal12basic_writerINS0_12buffer_rangeIcEEE10int_writerIjNS0_18basic_format_specsIcEEE6on_numEv
00000000 l    d  .literal._ZN3fmt2v68internal20handle_int_type_specINS1_12basic_writerINS0_12buffer_rangeIcEEE10int_writerIjNS0_18basic_format_specsIcEEEEEEvcOT_	00000000 .literal._ZN3fmt2v68internal20handle_int_type_specINS1_12basic_writerINS0_12buffer_rangeIcEEE10int_writerIjNS0_18basic_format_specsIcEEEEEEvcOT_
00000000 l    d  .literal._ZZNK3fmt2v68internal12basic_writerINS0_12buffer_rangeIcEEE10int_writerIxNS0_18basic_format_specsIcEEE10num_writerclIRPcEEvOT_ENKUlSD_E_clESD_	00000000 .literal._ZZNK3fmt2v68internal12basic_writerINS0_12buffer_rangeIcEEE10int_writerIxNS0_18basic_format_specsIcEEE10num_writerclIRPcEEvOT_ENKUlSD_E_clESD_
00000000 l    d  .literal._ZNK3fmt2v68internal12basic_writerINS0_12buffer_rangeIcEEE10int_writerIxNS0_18basic_format_specsIcEEE10num_writerclIRPcEEvOT_	00000000 .literal._ZNK3fmt2v68internal12basic_writerINS0_12buffer_rangeIcEEE10int_writerIxNS0_18basic_format_specsIcEEE10num_writerclIRPcEEvOT_
00000000 l    d  .literal._ZNK3fmt2v68internal12basic_writerINS0_12buffer_rangeIcEEE17padded_int_writerINS5_10int_writerIxNS0_18basic_format_specsIcEEE10num_writerEEclIRPcEEvOT_	00000000 .literal._ZNK3fmt2v68internal12basic_writerINS0_12buffer_rangeIcEEE17padded_int_writerINS5_10int_writerIxNS0_18basic_format_specsIcEEE10num_writerEEclIRPcEEvOT_
00000000 l    d  .literal._ZN3fmt2v68internal12basic_writerINS0_12buffer_rangeIcEEE12write_paddedINS5_17padded_int_writerINS5_10int_writerIxNS0_18basic_format_specsIcEEE10num_writerEEEEEvRKSA_OT_	00000000 .literal._ZN3fmt2v68internal12basic_writerINS0_12buffer_rangeIcEEE12write_paddedINS5_17padded_int_writerINS5_10int_writerIxNS0_18basic_format_specsIcEEE10num_writerEEEEEvRKSA_OT_
00000000 l    d  .literal._ZN3fmt2v68internal12basic_writerINS0_12buffer_rangeIcEEE10int_writerIxNS0_18basic_format_specsIcEEE6on_numEv	00000000 .literal._ZN3fmt2v68internal12basic_writerINS0_12buffer_rangeIcEEE10int_writerIxNS0_18basic_format_specsIcEEE6on_numEv
00000000 l    d  .literal._ZN3fmt2v68internal20handle_int_type_specINS1_12basic_writerINS0_12buffer_rangeIcEEE10int_writerIxNS0_18basic_format_specsIcEEEEEEvcOT_	00000000 .literal._ZN3fmt2v68internal20handle_int_type_specINS1_12basic_writerINS0_12buffer_rangeIcEEE10int_writerIxNS0_18basic_format_specsIcEEEEEEvcOT_
00000000 l    d  .literal._ZN3fmt2v68internal18arg_formatter_baseINS0_12buffer_rangeIcEENS1_13error_handlerEEclIxLi0EEESt20back_insert_iteratorINS1_6bufferIcEEET_	00000000 .literal._ZN3fmt2v68internal18arg_formatter_baseINS0_12buffer_rangeIcEENS1_13error_handlerEEclIxLi0EEESt20back_insert_iteratorINS1_6bufferIcEEET_
00000000 l    d  .literal._ZZNK3fmt2v68internal12basic_writerINS0_12buffer_rangeIcEEE10int_writerIyNS0_18basic_format_specsIcEEE10num_writerclIRPcEEvOT_ENKUlSD_E_clESD_	00000000 .literal._ZZNK3fmt2v68internal12basic_writerINS0_12buffer_rangeIcEEE10int_writerIyNS0_18basic_format_specsIcEEE10num_writerclIRPcEEvOT_ENKUlSD_E_clESD_
00000000 l    d  .literal._ZNK3fmt2v68internal12basic_writerINS0_12buffer_rangeIcEEE10int_writerIyNS0_18basic_format_specsIcEEE10num_writerclIRPcEEvOT_	00000000 .literal._ZNK3fmt2v68internal12basic_writerINS0_12buffer_rangeIcEEE10int_writerIyNS0_18basic_format_specsIcEEE10num_writerclIRPcEEvOT_
00000000 l    d  .literal._ZNK3fmt2v68internal12basic_writerINS0_12buffer_rangeIcEEE17padded_int_writerINS5_10int_writerIyNS0_18basic_format_specsIcEEE10num_writerEEclIRPcEEvOT_	00000000 .literal._ZNK3fmt2v68internal12basic_writerINS0_12buffer_rangeIcEEE17padded_int_writerINS5_10int_writerIyNS0_18basic_format_specsIcEEE10num_writerEEclIRPcEEvOT_
00000000 l    d  .literal._ZN3fmt2v68internal12basic_writerINS0_12buffer_rangeIcEEE12write_paddedINS5_17padded_int_writerINS5_10int_writerIyNS0_18basic_format_specsIcEEE10num_writerEEEEEvRKSA_OT_	00000000 .literal._ZN3fmt2v68internal12basic_writerINS0_12buffer_rangeIcEEE12write_paddedINS5_17padded_int_writerINS5_10int_writerIyNS0_18basic_format_specsIcEEE10num_writerEEEEEvRKSA_OT_
00000000 l    d  .literal._ZN3fmt2v68internal12basic_writerINS0_12buffer_rangeIcEEE10int_writerIyNS0_18basic_format_specsIcEEE6on_numEv	00000000 .literal._ZN3fmt2v68internal12basic_writerINS0_12buffer_rangeIcEEE10int_writerIyNS0_18basic_format_specsIcEEE6on_numEv
00000000 l    d  .literal._ZN3fmt2v68internal20handle_int_type_specINS1_12basic_writerINS0_12buffer_rangeIcEEE10int_writerIyNS0_18basic_format_specsIcEEEEEEvcOT_	00000000 .literal._ZN3fmt2v68internal20handle_int_type_specINS1_12basic_writerINS0_12buffer_rangeIcEEE10int_writerIyNS0_18basic_format_specsIcEEEEEEvcOT_
00000000 l    d  .literal._ZNK3fmt2v68internal12basic_writerINS0_12buffer_rangeIcEEE17padded_int_writerINS5_10int_writerIcNS0_18basic_format_specsIcEEE10dec_writerEEclIRPcEEvOT_	00000000 .literal._ZNK3fmt2v68internal12basic_writerINS0_12buffer_rangeIcEEE17padded_int_writerINS5_10int_writerIcNS0_18basic_format_specsIcEEE10dec_writerEEclIRPcEEvOT_
00000000 l    d  .literal._ZN3fmt2v68internal12basic_writerINS0_12buffer_rangeIcEEE12write_paddedINS5_17padded_int_writerINS5_10int_writerIcNS0_18basic_format_specsIcEEE10dec_writerEEEEEvRKSA_OT_	00000000 .literal._ZN3fmt2v68internal12basic_writerINS0_12buffer_rangeIcEEE12write_paddedINS5_17padded_int_writerINS5_10int_writerIcNS0_18basic_format_specsIcEEE10dec_writerEEEEEvRKSA_OT_
00000000 l    d  .literal._ZN3fmt2v68internal12basic_writerINS0_12buffer_rangeIcEEE10int_writerIcNS0_18basic_format_specsIcEEE6on_decEv	00000000 .literal._ZN3fmt2v68internal12basic_writerINS0_12buffer_rangeIcEEE10int_writerIcNS0_18basic_format_specsIcEEE6on_decEv
00000000 l    d  .literal._ZNK3fmt2v68internal12basic_writerINS0_12buffer_rangeIcEEE17padded_int_writerINS5_10int_writerIcNS0_18basic_format_specsIcEEE10hex_writerEEclIRPcEEvOT_	00000000 .literal._ZNK3fmt2v68internal12basic_writerINS0_12buffer_rangeIcEEE17padded_int_writerINS5_10int_writerIcNS0_18basic_format_specsIcEEE10hex_writerEEclIRPcEEvOT_
00000000 l    d  .literal._ZN3fmt2v68internal12basic_writerINS0_12buffer_rangeIcEEE12write_paddedINS5_17padded_int_writerINS5_10int_writerIcNS0_18basic_format_specsIcEEE10hex_writerEEEEEvRKSA_OT_	00000000 .literal._ZN3fmt2v68internal12basic_writerINS0_12buffer_rangeIcEEE12write_paddedINS5_17padded_int_writerINS5_10int_writerIcNS0_18basic_format_specsIcEEE10hex_writerEEEEEvRKSA_OT_
00000000 l    d  .literal._ZN3fmt2v68internal12basic_writerINS0_12buffer_rangeIcEEE10int_writerIcNS0_18basic_format_specsIcEEE6on_hexEv	00000000 .literal._ZN3fmt2v68internal12basic_writerINS0_12buffer_rangeIcEEE10int_writerIcNS0_18basic_format_specsIcEEE6on_hexEv
00000000 l    d  .literal._ZNK3fmt2v68internal12basic_writerINS0_12buffer_rangeIcEEE17padded_int_writerINS5_10int_writerIcNS0_18basic_format_specsIcEEE10bin_writerILi1EEEEclIRPcEEvOT_	00000000 .literal._ZNK3fmt2v68internal12basic_writerINS0_12buffer_rangeIcEEE17padded_int_writerINS5_10int_writerIcNS0_18basic_format_specsIcEEE10bin_writerILi1EEEEclIRPcEEvOT_
00000000 l    d  .literal._ZN3fmt2v68internal12basic_writerINS0_12buffer_rangeIcEEE12write_paddedINS5_17padded_int_writerINS5_10int_writerIcNS0_18basic_format_specsIcEEE10bin_writerILi1EEEEEEEvRKSA_OT_	00000000 .literal._ZN3fmt2v68internal12basic_writerINS0_12buffer_rangeIcEEE12write_paddedINS5_17padded_int_writerINS5_10int_writerIcNS0_18basic_format_specsIcEEE10bin_writerILi1EEEEEEEvRKSA_OT_
00000000 l    d  .literal._ZN3fmt2v68internal12basic_writerINS0_12buffer_rangeIcEEE10int_writerIcNS0_18basic_format_specsIcEEE6on_binEv	00000000 .literal._ZN3fmt2v68internal12basic_writerINS0_12buffer_rangeIcEEE10int_writerIcNS0_18basic_format_specsIcEEE6on_binEv
00000000 l    d  .literal._ZNK3fmt2v68internal12basic_writerINS0_12buffer_rangeIcEEE17padded_int_writerINS5_10int_writerIcNS0_18basic_format_specsIcEEE10bin_writerILi3EEEEclIRPcEEvOT_	00000000 .literal._ZNK3fmt2v68internal12basic_writerINS0_12buffer_rangeIcEEE17padded_int_writerINS5_10int_writerIcNS0_18basic_format_specsIcEEE10bin_writerILi3EEEEclIRPcEEvOT_
00000000 l    d  .literal._ZN3fmt2v68internal12basic_writerINS0_12buffer_rangeIcEEE12write_paddedINS5_17padded_int_writerINS5_10int_writerIcNS0_18basic_format_specsIcEEE10bin_writerILi3EEEEEEEvRKSA_OT_	00000000 .literal._ZN3fmt2v68internal12basic_writerINS0_12buffer_rangeIcEEE12write_paddedINS5_17padded_int_writerINS5_10int_writerIcNS0_18basic_format_specsIcEEE10bin_writerILi3EEEEEEEvRKSA_OT_
00000000 l    d  .literal._ZN3fmt2v68internal12basic_writerINS0_12buffer_rangeIcEEE10int_writerIcNS0_18basic_format_specsIcEEE6on_octEv	00000000 .literal._ZN3fmt2v68internal12basic_writerINS0_12buffer_rangeIcEEE10int_writerIcNS0_18basic_format_specsIcEEE6on_octEv
00000000 l    d  .literal._ZZNK3fmt2v68internal12basic_writerINS0_12buffer_rangeIcEEE10int_writerIcNS0_18basic_format_specsIcEEE10num_writerclIRPcEEvOT_ENKUlSD_E_clESD_	00000000 .literal._ZZNK3fmt2v68internal12basic_writerINS0_12buffer_rangeIcEEE10int_writerIcNS0_18basic_format_specsIcEEE10num_writerclIRPcEEvOT_ENKUlSD_E_clESD_
00000000 l    d  .literal._ZNK3fmt2v68internal12basic_writerINS0_12buffer_rangeIcEEE10int_writerIcNS0_18basic_format_specsIcEEE10num_writerclIRPcEEvOT_	00000000 .literal._ZNK3fmt2v68internal12basic_writerINS0_12buffer_rangeIcEEE10int_writerIcNS0_18basic_format_specsIcEEE10num_writerclIRPcEEvOT_
00000000 l    d  .literal._ZNK3fmt2v68internal12basic_writerINS0_12buffer_rangeIcEEE17padded_int_writerINS5_10int_writerIcNS0_18basic_format_specsIcEEE10num_writerEEclIRPcEEvOT_	00000000 .literal._ZNK3fmt2v68internal12basic_writerINS0_12buffer_rangeIcEEE17padded_int_writerINS5_10int_writerIcNS0_18basic_format_specsIcEEE10num_writerEEclIRPcEEvOT_
00000000 l    d  .literal._ZN3fmt2v68internal12basic_writerINS0_12buffer_rangeIcEEE12write_paddedINS5_17padded_int_writerINS5_10int_writerIcNS0_18basic_format_specsIcEEE10num_writerEEEEEvRKSA_OT_	00000000 .literal._ZN3fmt2v68internal12basic_writerINS0_12buffer_rangeIcEEE12write_paddedINS5_17padded_int_writerINS5_10int_writerIcNS0_18basic_format_specsIcEEE10num_writerEEEEEvRKSA_OT_
00000000 l    d  .literal._ZN3fmt2v68internal12basic_writerINS0_12buffer_rangeIcEEE10int_writerIcNS0_18basic_format_specsIcEEE6on_numEv	00000000 .literal._ZN3fmt2v68internal12basic_writerINS0_12buffer_rangeIcEEE10int_writerIcNS0_18basic_format_specsIcEEE6on_numEv
00000000 l    d  .literal._ZN3fmt2v68internal20handle_int_type_specINS1_12basic_writerINS0_12buffer_rangeIcEEE10int_writerIcNS0_18basic_format_specsIcEEEEEEvcOT_	00000000 .literal._ZN3fmt2v68internal20handle_int_type_specINS1_12basic_writerINS0_12buffer_rangeIcEEE10int_writerIcNS0_18basic_format_specsIcEEEEEEvcOT_
00000000 l    d  .literal._ZN3fmt2v68internal18arg_formatter_baseINS0_12buffer_rangeIcEENS1_13error_handlerEEclEc	00000000 .literal._ZN3fmt2v68internal18arg_formatter_baseINS0_12buffer_rangeIcEENS1_13error_handlerEEclEc
00000000 l    d  .literal._ZN3fmt2v616visit_format_argINS0_13arg_formatterINS0_12buffer_rangeIcEEEENS0_20basic_format_contextISt20back_insert_iteratorINS0_8internal6bufferIcEEEcEEEEDTclfp_Li0EEEOT_RKNS0_16basic_format_argIT0_EE	00000000 .literal._ZN3fmt2v616visit_format_argINS0_13arg_formatterINS0_12buffer_rangeIcEEEENS0_20basic_format_contextISt20back_insert_iteratorINS0_8internal6bufferIcEEEcEEEEDTclfp_Li0EEEOT_RKNS0_16basic_format_argIT0_EE
00000000 l    d  .literal._ZN3fmt2v614format_handlerINS0_13arg_formatterINS0_12buffer_rangeIcEEEEcNS0_20basic_format_contextISt20back_insert_iteratorINS0_8internal6bufferIcEEEcEEE20on_replacement_fieldEPKc	00000000 .literal._ZN3fmt2v614format_handlerINS0_13arg_formatterINS0_12buffer_rangeIcEEEEcNS0_20basic_format_contextISt20back_insert_iteratorINS0_8internal6bufferIcEEEcEEE20on_replacement_fieldEPKc
00000000 l    d  .literal._ZN3fmt2v68internal19parse_format_stringILb0EcRNS0_14format_handlerINS0_13arg_formatterINS0_12buffer_rangeIcEEEEcNS0_20basic_format_contextISt20back_insert_iteratorINS1_6bufferIcEEEcEEEEEEvNS0_17basic_string_viewIT0_EEOT1_	00000000 .literal._ZN3fmt2v68internal19parse_format_stringILb0EcRNS0_14format_handlerINS0_13arg_formatterINS0_12buffer_rangeIcEEEEcNS0_20basic_format_contextISt20back_insert_iteratorINS1_6bufferIcEEEcEEEEEEvNS0_17basic_string_viewIT0_EEOT1_
00000000 l    d  .literal._ZN3fmt2v610vformat_toINS0_13arg_formatterINS0_12buffer_rangeIcEEEEcNS0_20basic_format_contextISt20back_insert_iteratorINS0_8internal6bufferIcEEEcEEEENT1_8iteratorENT_5rangeENS0_17basic_string_viewIT0_EENS0_17basic_format_argsISD_EENS8_10locale_refE	00000000 .literal._ZN3fmt2v610vformat_toINS0_13arg_formatterINS0_12buffer_rangeIcEEEEcNS0_20basic_format_contextISt20back_insert_iteratorINS0_8internal6bufferIcEEEcEEEENT1_8iteratorENT_5rangeENS0_17basic_string_viewIT0_EENS0_17basic_format_argsISD_EENS8_10locale_refE
00000000 l    d  .literal._ZN3fmt2v69format_toIA29_cJRhELj500EcEENS0_14buffer_contextIT2_E8iteratorERNS0_19basic_memory_bufferIS5_XT1_ESaIS5_EEERKT_DpOT0_	00000000 .literal._ZN3fmt2v69format_toIA29_cJRhELj500EcEENS0_14buffer_contextIT2_E8iteratorERNS0_19basic_memory_bufferIS5_XT1_ESaIS5_EEERKT_DpOT0_
00000000 l    d  .literal._ZN7Printer7processEPv	00000000 .literal._ZN7Printer7processEPv
00000000 l    d  .debug_macro	00000000 .debug_macro
00000000 l    d  .debug_macro	00000000 .debug_macro
00000000 l    d  .debug_macro	00000000 .debug_macro
00000000 l    d  .debug_macro	00000000 .debug_macro
00000000 l    d  .debug_macro	00000000 .debug_macro
00000000 l    d  .debug_macro	00000000 .debug_macro
00000000 l    d  .debug_macro	00000000 .debug_macro
00000000 l    d  .debug_macro	00000000 .debug_macro
00000000 l    d  .debug_macro	00000000 .debug_macro
00000000 l    d  .debug_macro	00000000 .debug_macro
00000000 l    d  .debug_macro	00000000 .debug_macro
00000000 l    d  .debug_macro	00000000 .debug_macro
00000000 l    d  .debug_macro	00000000 .debug_macro
00000000 l    d  .debug_macro	00000000 .debug_macro
00000000 l    d  .debug_macro	00000000 .debug_macro
00000000 l    d  .debug_macro	00000000 .debug_macro
00000000 l    d  .debug_macro	00000000 .debug_macro
00000000 l    d  .debug_macro	00000000 .debug_macro
00000000 l    d  .debug_macro	00000000 .debug_macro
00000000 l    d  .debug_macro	00000000 .debug_macro
00000000 l    d  .debug_macro	00000000 .debug_macro
00000000 l    d  .debug_macro	00000000 .debug_macro
00000000 l    d  .debug_macro	00000000 .debug_macro
00000000 l    d  .debug_macro	00000000 .debug_macro
00000000 l    d  .debug_macro	00000000 .debug_macro
00000000 l    d  .debug_macro	00000000 .debug_macro
00000000 l    d  .debug_macro	00000000 .debug_macro
00000000 l    d  .debug_macro	00000000 .debug_macro
00000000 l    d  .debug_macro	00000000 .debug_macro
00000000 l    d  .debug_macro	00000000 .debug_macro
00000000 l    d  .debug_macro	00000000 .debug_macro
00000000 l    d  .debug_macro	00000000 .debug_macro
00000000 l    d  .debug_macro	00000000 .debug_macro
00000000 l    d  .debug_macro	00000000 .debug_macro
00000000 l    d  .debug_macro	00000000 .debug_macro
00000000 l    d  .debug_macro	00000000 .debug_macro
00000000 l    d  .debug_macro	00000000 .debug_macro
00000000 l    d  .debug_macro	00000000 .debug_macro
00000000 l    d  .debug_macro	00000000 .debug_macro
00000000 l    d  .debug_macro	00000000 .debug_macro
00000000 l    d  .debug_macro	00000000 .debug_macro
00000000 l    d  .debug_macro	00000000 .debug_macro
00000000 l    d  .debug_macro	00000000 .debug_macro
00000000 l    d  .debug_macro	00000000 .debug_macro
00000000 l    d  .debug_macro	00000000 .debug_macro
00000000 l    d  .debug_macro	00000000 .debug_macro
00000000 l    d  .debug_macro	00000000 .debug_macro
00000000 l    d  .debug_macro	00000000 .debug_macro
00000000 l    d  .debug_macro	00000000 .debug_macro
00000000 l    d  .debug_macro	00000000 .debug_macro
00000000 l    d  .debug_macro	00000000 .debug_macro
00000000 l    d  .debug_macro	00000000 .debug_macro
00000000 l    d  .debug_macro	00000000 .debug_macro
00000000 l    d  .debug_macro	00000000 .debug_macro
00000000 l    d  .debug_macro	00000000 .debug_macro
00000000 l    d  .debug_macro	00000000 .debug_macro
00000000 l    d  .debug_macro	00000000 .debug_macro
00000000 l    d  .debug_macro	00000000 .debug_macro
00000000 l    d  .debug_macro	00000000 .debug_macro
00000000 l    d  .debug_macro	00000000 .debug_macro
00000000 l    d  .debug_macro	00000000 .debug_macro
00000000 l    d  .debug_macro	00000000 .debug_macro
00000000 l    d  .debug_macro	00000000 .debug_macro
00000000 l    d  .debug_macro	00000000 .debug_macro
00000000 l    d  .debug_macro	00000000 .debug_macro
00000000 l    d  .debug_macro	00000000 .debug_macro
00000000 l    d  .debug_macro	00000000 .debug_macro
00000000 l    d  .debug_macro	00000000 .debug_macro
00000000 l    d  .debug_macro	00000000 .debug_macro
00000000 l    d  .debug_macro	00000000 .debug_macro
00000000 l    d  .debug_macro	00000000 .debug_macro
00000000 l    d  .debug_macro	00000000 .debug_macro
00000000 l    d  .debug_macro	00000000 .debug_macro
00000000 l    d  .debug_macro	00000000 .debug_macro
00000000 l    d  .debug_macro	00000000 .debug_macro
00000000 l    d  .debug_macro	00000000 .debug_macro
00000000 l    d  .debug_macro	00000000 .debug_macro
00000000 l    d  .debug_macro	00000000 .debug_macro
00000000 l    d  .debug_macro	00000000 .debug_macro
00000000 l    d  .debug_macro	00000000 .debug_macro
00000000 l    d  .debug_macro	00000000 .debug_macro
00000000 l    d  .debug_macro	00000000 .debug_macro
00000000 l    d  .debug_macro	00000000 .debug_macro
00000000 l    d  .debug_macro	00000000 .debug_macro
00000000 l    d  .debug_macro	00000000 .debug_macro
00000000 l    d  .debug_macro	00000000 .debug_macro
00000000 l    d  .debug_macro	00000000 .debug_macro
00000000 l    d  .debug_macro	00000000 .debug_macro
00000000 l    d  .debug_macro	00000000 .debug_macro
00000000 l    d  .debug_macro	00000000 .debug_macro
00000000 l    d  .debug_macro	00000000 .debug_macro
00000000 l    d  .debug_macro	00000000 .debug_macro
00000000 l    d  .debug_macro	00000000 .debug_macro
00000000 l    d  .debug_macro	00000000 .debug_macro
00000000 l    d  .debug_macro	00000000 .debug_macro
00000000 l    d  .debug_macro	00000000 .debug_macro
00000000 l    d  .debug_macro	00000000 .debug_macro
00000000 l    d  .debug_macro	00000000 .debug_macro
00000000 l    d  .debug_macro	00000000 .debug_macro
00000000 l    d  .debug_macro	00000000 .debug_macro
00000000 l    d  .debug_macro	00000000 .debug_macro
00000000 l    d  .debug_macro	00000000 .debug_macro
00000000 l    d  .debug_macro	00000000 .debug_macro
00000000 l    d  .debug_macro	00000000 .debug_macro
00000000 l    d  .debug_macro	00000000 .debug_macro
00000000 l    d  .debug_macro	00000000 .debug_macro
00000000 l    d  .debug_macro	00000000 .debug_macro
00000000 l    d  .debug_macro	00000000 .debug_macro
00000000 l    d  .debug_macro	00000000 .debug_macro
00000000 l    d  .debug_macro	00000000 .debug_macro
00000000 l    d  .debug_macro	00000000 .debug_macro
00000000 l    d  .debug_macro	00000000 .debug_macro
00000000 l    d  .debug_macro	00000000 .debug_macro
00000000 l    d  .debug_macro	00000000 .debug_macro
00000000 l    d  .debug_macro	00000000 .debug_macro
00000000 l    d  .debug_macro	00000000 .debug_macro
00000000 l    d  .debug_macro	00000000 .debug_macro
00000000 l    d  .debug_macro	00000000 .debug_macro
00000000 l    d  .debug_macro	00000000 .debug_macro
00000000 l    d  .debug_macro	00000000 .debug_macro
00000000 l    d  .debug_macro	00000000 .debug_macro
00000000 l    d  .debug_macro	00000000 .debug_macro
00000000 l    d  .debug_macro	00000000 .debug_macro
00000000 l    d  .debug_macro	00000000 .debug_macro
00000000 l    d  .debug_macro	00000000 .debug_macro
00000000 l    d  .debug_macro	00000000 .debug_macro
00000000 l    d  .debug_macro	00000000 .debug_macro
00000000 l    d  .debug_macro	00000000 .debug_macro
00000000 l    d  .debug_macro	00000000 .debug_macro
00000000 l    d  .debug_macro	00000000 .debug_macro
00000000 l    d  .debug_macro	00000000 .debug_macro
00000000 l    d  .debug_macro	00000000 .debug_macro
00000000 l    d  .debug_macro	00000000 .debug_macro
00000000 l    d  .debug_macro	00000000 .debug_macro
00000000 l    d  .debug_macro	00000000 .debug_macro
00000000 l    d  .debug_macro	00000000 .debug_macro
00000000 l    d  .debug_macro	00000000 .debug_macro
00000000 l    d  .debug_macro	00000000 .debug_macro
00000000 l    d  .debug_macro	00000000 .debug_macro
00000000 l    d  .debug_macro	00000000 .debug_macro
00000000 l    d  .debug_macro	00000000 .debug_macro
00000000 l    d  .debug_macro	00000000 .debug_macro
00000000 l    d  .debug_macro	00000000 .debug_macro
00000000 l    d  .debug_macro	00000000 .debug_macro
00000000 l    d  .debug_macro	00000000 .debug_macro
00000000 l    d  .debug_macro	00000000 .debug_macro
00000000 l    d  .debug_macro	00000000 .debug_macro
00000000 l    d  .debug_macro	00000000 .debug_macro
00000000 l    d  .debug_macro	00000000 .debug_macro
00000000 l    d  .debug_macro	00000000 .debug_macro
00000000 l    d  .debug_macro	00000000 .debug_macro
00000000 l    d  .debug_macro	00000000 .debug_macro
00000000 l    d  .debug_macro	00000000 .debug_macro
00000000 l    d  .debug_macro	00000000 .debug_macro
00000000 l    d  .debug_macro	00000000 .debug_macro
00000000 l    d  .debug_macro	00000000 .debug_macro
00000000 l       .group	00000000 fmt::v6::basic_memory_buffer<char, 500u, std::allocator<char> >::~basic_memory_buffer()
00000000 l       .group	00000000 fmt::v6::basic_format_specs<char>::basic_format_specs()
00000000 l       .group	00000000 fmt::v6::internal::float_writer<char>::float_writer(char const*, int, int, fmt::v6::internal::float_specs, char)
00000000 l       .group	00000000 wm4.0.5ef964d328012166e42375060b632eb6
00000000 l       .group	00000000 wm4.features.h.22.dcdfd71ac0cd63134c08122b789e955b
00000000 l       .group	00000000 wm4._default_types.h.19.3c10c0b6d280241afdf3c44012b3582c
00000000 l       .group	00000000 wm4._intsup.h.12.34117a7cd5dfbeea122b3dc66d05a8dc
00000000 l       .group	00000000 wm4.stdint.h.22.f4a337c398d8b6d821a97202448bc0d0
00000000 l       .group	00000000 wm4.stdarg.h.31.72c3aa8d68b291953fa52b9471bcdff7
00000000 l       .group	00000000 wm4.sdkconfig.h.7.8097b81e5490c86f12570121ec7eda83
00000000 l       .group	00000000 wm4.stdbool.h.29.01580e438512fc255c0619569742ffd3
00000000 l       .group	00000000 wm4.newlib.h.8.bc0d7bcbf7c91a109c7ba44eafa89497
00000000 l       .group	00000000 wm4.coreisa.h.32.0118a48ac4414f83fa3bcad3ef157996
00000000 l       .group	00000000 wm4.config.h.190.810e22b15fda70a4658cd57f07685d46
00000000 l       .group	00000000 wm4._ansi.h.23.1ee1144430bedaab1a14c7b57a6c8384
00000000 l       .group	00000000 wm4.assert.h.11.a5d97ca77559a42890313c4941c01fd9
00000000 l       .group	00000000 wm4.soc.h.24.2ca97ce21044a7e9de07049272038825
00000000 l       .group	00000000 wm4.ets_sys.h.264.effa7d715e30e8b7911c44931e818c87
00000000 l       .group	00000000 wm4.esp_log.h.115.c25cba59f12c6c7fca553b28497932bf
00000000 l       .group	00000000 wm4.stddef.h.39.fa2e86d241f4df50b9327c72832885e1
00000000 l       .group	00000000 wm4.stdio.h.27.3fc80220048df77954e38daec3bb9670
00000000 l       .group	00000000 wm4.stddef.h.161.38688f2eb958a8ed58fdb61ffe554c94
00000000 l       .group	00000000 wm4.cdefs.h.47.ef1f74da16cdd7cc7d09e79a2291769d
00000000 l       .group	00000000 wm4.lock.h.2.30a3ca7c6fdb7c961544f2df84044af1
00000000 l       .group	00000000 wm4._types.h.54.d3d34a3b7f3cc230cd159baf022b4b08
00000000 l       .group	00000000 wm4.stddef.h.161.7e98c9c86da0ed2d27af2ef92af7d013
00000000 l       .group	00000000 wm4.reent.h.17.79cb774cb42d585c76cce329212c9474
00000000 l       .group	00000000 wm4.types.h.23.0d949686bbcadd1621462d4fa1f884f9
00000000 l       .group	00000000 wm4.types.h.2.e9cec8c90ab35f77d9f499e06ae02400
00000000 l       .group	00000000 wm4.types.h.80.b4fc3f708bd3dcf753550d516a5a2b5d
00000000 l       .group	00000000 wm4.sched.h.22.41a0b18d6b0baa15feaac2022f98de58
00000000 l       .group	00000000 wm4.types.h.312.59df2934ca02bc7ab00ddf584d888c34
00000000 l       .group	00000000 wm4.stdio.h.2.4aa87247282eca6c8f36f9de33d8df1a
00000000 l       .group	00000000 wm4.stdio.h.65.7c38534f0330340ca4368ad967047b14
00000000 l       .group	00000000 wm4.stdlib.h.13.4ed386f5c1a80d71e72172885d946ef2
00000000 l       .group	00000000 wm4.stdlib.h.54.c014cf5bff554c0153c41a6c73006c19
00000000 l       .group	00000000 wm4.string.h.8.c4b8571ce60dff2817f43fec8b86aecd
00000000 l       .group	00000000 wm4.inttypes.h.14.3346efde6560fdc2de4fd197fd4bb50f
00000000 l       .group	00000000 wm4.inttypes.h.22.b6d4403388c9bb1694ca7edd228e8ddf
00000000 l       .group	00000000 wm4.FreeRTOSConfig.h.78.9e76e960ae7579fe4272be9ccc6fea3a
00000000 l       .group	00000000 wm4.hal.h.40.1b32036b05a74cfc79fcf27f0517b772
00000000 l       .group	00000000 wm4.xtensaversions.h.35.c8323a24c14351565b672ab8efee519e
00000000 l       .group	00000000 wm4.corematmap.h.48.61132ce2aba13869a5f1a8542454647e
00000000 l       .group	00000000 wm4.tie.h.33.c51e6850b2ab09aed1c52f7722df6b04
00000000 l       .group	00000000 wm4.core.h.79.f711f16ad8fad838df748017d0691650
00000000 l       .group	00000000 wm4.system.h.36.7282884ce7a8fc845c3fa24cdb495c97
00000000 l       .group	00000000 wm4.corebits.h.34.78eb7fe1030b6b69ee81a9c153859620
00000000 l       .group	00000000 wm4.xtruntimeframes.h.28.686c71187a62f4ab323225677e84af7d
00000000 l       .group	00000000 wm4.xtensa_context.h.51.a777954ba09c7f6118db28323088df03
00000000 l       .group	00000000 wm4.xtensa_config.h.104.9080da7193c93cf129cf5fdb6c746169
00000000 l       .group	00000000 wm4.FreeRTOSConfig.h.130.3f05ee41ec12bb45f9d5cfe1f0496656
00000000 l       .group	00000000 wm4.projdefs.h.71.1734cd3501e070360596dd847bb9d813
00000000 l       .group	00000000 wm4.specreg.h.29.81340bb81bd0dc5a4c3a946436d1f3d4
00000000 l       .group	00000000 wm4.xtruntimecorestate.h.28.5016076ea0efecbc64856362c65930d0
00000000 l       .group	00000000 wm4.xtruntime.h.34.130e0c7f91d037625cd9d0e167e55aa8
00000000 l       .group	00000000 wm4.assert.h.11.7043852a511d37ae606afa012e67e471
00000000 l       .group	00000000 wm4.esp_err.h.27.6479bbdc26e8b542a746459aaeb46dbb
00000000 l       .group	00000000 wm4.esp_heap_caps.h.27.bd994215179f34f38cce267bfe00557d
00000000 l       .group	00000000 wm4.esp_attr.h.15.4efd53efb3edd4951ceee162f2c95426
00000000 l       .group	00000000 wm4.soc_memory_layout.h.25.4a7b6f04becb93ac6f452dcebaf93bc3
00000000 l       .group	00000000 wm4.portmacro.h.102.e2b9135fe7424a0e30bf16bdda4845e3
00000000 l       .group	00000000 wm4.portbenchmark.h.33.24086cd1c7b561750743296fef8928a9
00000000 l       .group	00000000 wm4.portmacro.h.150.5b1b448cd983d79983c42c591b470edf
00000000 l       .group	00000000 wm4.portable.h.102.f2527eb913560510b76e73c7921983d0
00000000 l       .group	00000000 wm4.gpio_reg.h.18.990a27770932b80907774a62b9ead945
00000000 l       .group	00000000 wm4.rtc_io_reg.h.15.0cad08eb25ac80fd9737e0b24c9adbc3
00000000 l       .group	00000000 wm4.io_mux_reg.h.15.20e02099dad7445e46df40bd3a1ea6bf
00000000 l       .group	00000000 wm4.gpio_sig_map.h.15.d6607d082d0505840fc415ec30eb2a15
00000000 l       .group	00000000 wm4.gpio_pins.h.16.27736d3115e69f0fb76ff518ab42eb37
00000000 l       .group	00000000 wm4.gpio.h.37.f50d17736b52c5888ca5c3dc7af4a0ba
00000000 l       .group	00000000 wm4.esp_intr_alloc.h.16.ae664f37d0f3830fb9945e6924921232
00000000 l       .group	00000000 wm4.gpio.h.33.8f85b748bc0887e7f65b7793fb3b34fd
00000000 l       .group	00000000 wm4.esp_intr.h.25.328f2c379d1d249233127b55e8746dac
00000000 l       .group	00000000 wm4.touch_channel.h.16.1dd15690a99cdb5e6114045bb15590ab
00000000 l       .group	00000000 wm4.touch_pad.h.105.98abbdf04f8deadf7e41020b242d7933
00000000 l       .group	00000000 wm4.esp_system.h.35.ecdabf77e9733777567739b5e046af1a
00000000 l       .group	00000000 wm4.portable.h.147.b31486e77f09f81a321061ac4c38f732
00000000 l       .group	00000000 wm4.FreeRTOS.h.180.5d0884549e6c114a93ed1408a3ca8092
00000000 l       .group	00000000 wm4.limits.h.2.124c549feaa374782d4e3e2b019d62b5
00000000 l       .group	00000000 wm4.limits.h.30.0b0dd3492cd54ac2e81d4851e50c9908
00000000 l       .group	00000000 wm4.limits.h.137.ed57deaf153ca58d2aeb1410b363ec02
00000000 l       .group	00000000 wm4.list.h.103.70efcbdc90e83c580269d38ac7272fe9
00000000 l       .group	00000000 wm4.task.h.91.7fca5e09e0048d92e89b60f571e32268
00000000 l       .group	00000000 wm4.queue.h.72.f624d90d3950f5e438f8333564ea1ae9
00000000 l       .group	00000000 wm4.semphr.h.81.914d690bf42cc727449f9e219c586614
00000000 l       .group	00000000 wm4.math.h.35.85f43ee45e14905fbdb771bf85cb1d76
00000000 l       .group	00000000 wm4.esp32hal.h.45.5f4523af8fb9085215d20e60c60e347a
00000000 l       .group	00000000 wm4.esp32hallog.h.24.d8bd020eb7d38351ca6b09186a2425a3
00000000 l       .group	00000000 wm4.esp32haluart.h.16.9cf0460f1049ab7b4f8b909ea97e0e1d
00000000 l       .group	00000000 wm4.esp32halgpio.h.21.7f71484739cde906a61f5b5791279a6f
00000000 l       .group	00000000 wm4.esp32halspi.h.16.4563c40985fdfd6f405ed74a5ebb0ddd
00000000 l       .group	00000000 wm4.timers.h.96.9f1353807eaee541044ecb5fd0d1e7f2
00000000 l       .group	00000000 wm4.event_groups.h.414.670273d5d92319363ae6e400ce21b1d8
00000000 l       .group	00000000 wm4.esp32halrmt.h.16.a73f6f9accd23a721ce50c64fe0dfa27
00000000 l       .group	00000000 wm4.esp8266compat.h.18.1ed220836672965f2d05317f5b10e8c5
00000000 l       .group	00000000 wm4.binary.h.21.20010f10fc33bb56bca280a13b92e1ce
00000000 l       .group	00000000 wm4.Arduino.h.42.8f46d5bae35a02019ef81dc40ad82a30
00000000 l       .group	00000000 wm4.cconfig.h.31.405b3f673609fb6077ebe05e13972f84
00000000 l       .group	00000000 wm4.os_defines.h.31.0c4b3684afa338dfafc6226fa8825723
00000000 l       .group	00000000 wm4.cconfig.h.490.e128a94a2a4837f9ce759502070faf7a
00000000 l       .group	00000000 wm4.concept_check.h.31.3d579f007de71573a5abea960f72bfb9
00000000 l       .group	00000000 wm4.type_traits.77.38245bb32a1033c7c4315876f80fc967
00000000 l       .group	00000000 wm4.move.h.152.41d7b9e6779674d169b7813982cfa003
00000000 l       .group	00000000 wm4.utility.162.08fa26786374dafe68f6fa6a2cdc54d7
00000000 l       .group	00000000 wm4.exception_defines.h.31.ca6841b9be3287386aafc5c717935b2e
00000000 l       .group	00000000 wm4.cpp_type_traits.h.33.1347139df156938d2b4c9385225deb4d
00000000 l       .group	00000000 wm4.numeric_traits.h.30.aa01a98564b7e55086aad9e53c7e5c53
00000000 l       .group	00000000 wm4.debug.h.30.d58369f6a5680b4507179eb46c141328
00000000 l       .group	00000000 wm4.stl_iterator.h.392.282034bb928297018606060e1387f9ee
00000000 l       .group	00000000 wm4.stl_algobase.h.505.7389781cdce16c9eebca9c92236d0021
00000000 l       .group	00000000 wm4.cstdlib.44.0e7501e2ff16e91d15924e4f516082f0
00000000 l       .group	00000000 wm4.atomic_lockfree_defines.h.31.d5c6334fb1e95c9462b052951f1411df
00000000 l       .group	00000000 wm4.alloc_traits.h.90.a8929a62cdd22009b30d3950a41245d5
00000000 l       .group	00000000 wm4.cmath.47.b051f44a94b892370433fe6f0bbb5912
00000000 l       .group	00000000 wm4.wchar.h.2.f837619576d797e948eb58c44fac4678
00000000 l       .group	00000000 wm4.stddef.h.161.9f48187563b2a85291a91832aa425498
00000000 l       .group	00000000 wm4.wchar.h.14.ca4e7a96e71383996513916f8d60ad59
00000000 l       .group	00000000 wm4.cwchar.48.9655a520fa8ea378dbf29aac758cd05c
00000000 l       .group	00000000 wm4.locale.h.8.a1329ceef4af015164ee9036f2b8046e
00000000 l       .group	00000000 wm4.locale.h.15.11f0b9b758251d0735c4c1b9e384a9a0
00000000 l       .group	00000000 wm4.clocale.45.c36d2d5b631a875aa5273176b54fdf0f
00000000 l       .group	00000000 wm4.ctype.h.2.3f72bf4155744aa2d452525ff7ceebe9
00000000 l       .group	00000000 wm4.cctype.45.0da5714876b0be7f2d816b53d9670403
00000000 l       .group	00000000 wm4.stl_function.h.57.472a8ffdc5144ddcd047558cd884dda0
00000000 l       .group	00000000 wm4.gthrdefault.h.27.30a03623e42919627c5b0e155787471b
00000000 l       .group	00000000 wm4.unistd.h.2.39165d5b7784d1815ef4b0c4be6df560
00000000 l       .group	00000000 wm4.unistd.h.267.720c918260e2d6b59d3fb9f9a9cefe71
00000000 l       .group	00000000 wm4.unistd.h.8.d52d651ab9d7dbf751d2e8124f3060bf
00000000 l       .group	00000000 wm4.time.h.8.2930fe070f4a8096b07db9159698c8e3
00000000 l       .group	00000000 wm4.time.h.21.15587b2f9b6b8422d5ae4c4a0523f4a8
00000000 l       .group	00000000 wm4.pthread.h.79.3eb8f9d232e58f87dbc5cbbd7536a56a
00000000 l       .group	00000000 wm4.gthrdefault.h.57.e22b91aa66d82b1f3e669c9880a4f5a5
00000000 l       .group	00000000 wm4.atomicity.h.111.79decd8dc33743090fdbd96a0d0d2856
00000000 l       .group	00000000 wm4.functional_hash.h.70.cc33b6cebe8994531b9602e1a54d32b1
00000000 l       .group	00000000 wm4.limits.38.913a94954270d2ce88c56ea8d7b4213a
00000000 l       .group	00000000 wm4.WCharacter.h.21.51fef3229cfe223428508ae44ce6b664
00000000 l       .group	00000000 wm4.pgmspace.h.20.fba729b18a991ca31d8506a767c911c5
00000000 l       .group	00000000 wm4.WString.h.39.87f960fa887fbc0e630527a9eda107db
00000000 l       .group	00000000 wm4.Print.h.29.46f107346317a761e8a0ae8889ee3a87
00000000 l       .group	00000000 wm4.Arduino.h.167.2c6ca1e5179e9f3f226fd1fce4185724
00000000 l       .group	00000000 wm4.pins_arduino.h.2.4428a0c9f5a8df766dc7dc15696aa43f
00000000 l       .group	00000000 wm4.timer_group_reg.h.15.7854ff2d2f1aa8f497f2028f4feac5b0
00000000 l       .group	00000000 wm4.errno.h.2.ba016d646105af6cad23be83630b6a3f
00000000 l       .group	00000000 wm4.errno.h.9.1ecd7b1049497a0ab61da0f6cbd4b0c6
00000000 l       .group	00000000 wm4.typeinfo.30.80acac5425079e8cbe9dc49ae1be63c0
00000000 l       .group	00000000 wm4.tuple.790.b82e9d3adaa927cdb53f6342ecb9fbc5
00000000 l       .group	00000000 wm4.functional.514.b4c50320a2c26962e30b4619f27cf54d
00000000 l       .group	00000000 wm4.unique_ptr.h.31.56d18626cec3f7a402c2cec6b8e355f2
00000000 l       .group	00000000 wm4.atomic_base.h.31.692a6b53cef50ad728d4af54dfbd4448
00000000 l       .group	00000000 wm4.cstdio.45.c2b17298355cf94ab4a2cde0ae670f8d
00000000 l       .group	00000000 wm4.cstring.45.6ab09de7fb97b576e744347688ddc8d7
00000000 l       .group	00000000 wm4.wctype.h.2.898a9b94aa35d125e245195b099726a8
00000000 l       .group	00000000 wm4.wctype.h.17.936ad50d01b3d645973f6b73aa9c4cb8
00000000 l       .group	00000000 wm4.cwctype.54.6582aca101688c1c3785d03bc15e2af6
00000000 l       .group	00000000 wm4.locale_facets.h.56.0d4bb655ce5e76ea564363ed7c5a34fc
00000000 l       .group	00000000 wm4.core.h.21.600b92f87d6f2dca7110fc75e9ffc8c6
00000000 l       .group	00000000 wm4.string_view.34.3be31e1ae13573188381f213de4041e9
00000000 l       .group	00000000 wm4.core.h.239.b3143e7ff45f1ac741f57b3b121d7463
00000000 l       .group	00000000 wm4.format.h.55.bb68d5133d9e27b1b5d953ecc9170146
00000000 l    d  .comment	00000000 .comment
00000000 l    d  .xtensa.info	00000000 .xtensa.info
00000000 l    d  .xt.lit	00000000 .xt.lit
00000000 l    d  .xt.lit._ZN3fmt2v619basic_memory_bufferIcLj500ESaIcEED5Ev	00000000 .xt.lit._ZN3fmt2v619basic_memory_bufferIcLj500ESaIcEED5Ev
00000000 l    d  .xt.lit._ZN3fmt2v68internal16is_integral_typeENS1_4typeE	00000000 .xt.lit._ZN3fmt2v68internal16is_integral_typeENS1_4typeE
00000000 l    d  .xt.lit._ZN3fmt2v68internal12count_digitsEy	00000000 .xt.lit._ZN3fmt2v68internal12count_digitsEy
00000000 l    d  .xt.lit._ZN3fmt2v68internal12count_digitsEj	00000000 .xt.lit._ZN3fmt2v68internal12count_digitsEj
00000000 l    d  .xt.lit._ZN7Printer5beginEjjj	00000000 .xt.lit._ZN7Printer5beginEjjj
00000000 l    d  .xt.lit._ZN3Pin7setHighEv	00000000 .xt.lit._ZN3Pin7setHighEv
00000000 l    d  .xt.lit._ZN7OneWire11becomeSlaveEv	00000000 .xt.lit._ZN7OneWire11becomeSlaveEv
00000000 l    d  .xt.lit._ZN3fmt2v68internal11to_unsignedIiEENSt13make_unsignedIT_E4typeES4_	00000000 .xt.lit._ZN3fmt2v68internal11to_unsignedIiEENSt13make_unsignedIT_E4typeES4_
00000000 l    d  .xt.lit._ZN3fmt2v618basic_format_specsIcEC5Ev	00000000 .xt.lit._ZN3fmt2v618basic_format_specsIcEC5Ev
00000000 l    d  .xt.lit._ZN3fmt2v626basic_format_parse_contextIcNS0_8internal13error_handlerEE10advance_toEPKc	00000000 .xt.lit._ZN3fmt2v626basic_format_parse_contextIcNS0_8internal13error_handlerEE10advance_toEPKc
00000000 l    d  .xt.lit._ZN3fmt2v68internal11parse_alignIcRNS1_13specs_checkerINS1_13specs_handlerINS0_26basic_format_parse_contextIcNS1_13error_handlerEEENS0_20basic_format_contextISt20back_insert_iteratorINS1_6bufferIcEEEcEEEEEEEEPKT_SJ_SJ_OT0_	00000000 .xt.lit._ZN3fmt2v68internal11parse_alignIcRNS1_13specs_checkerINS1_13specs_handlerINS0_26basic_format_parse_contextIcNS1_13error_handlerEEENS0_20basic_format_contextISt20back_insert_iteratorINS1_6bufferIcEEEcEEEEEEEEPKT_SJ_SJ_OT0_
00000000 l    d  .xt.lit._ZN3fmt2v68internal7reserveINS1_6bufferIcEELi0EEEPNT_10value_typeERSt20back_insert_iteratorIS5_Ej	00000000 .xt.lit._ZN3fmt2v68internal7reserveINS1_6bufferIcEELi0EEEPNT_10value_typeERSt20back_insert_iteratorIS5_Ej
00000000 l    d  .xt.lit._ZN3fmt2v68internal21numeric_specs_checkerINS1_13specs_handlerINS0_26basic_format_parse_contextIcNS1_13error_handlerEEENS0_20basic_format_contextISt20back_insert_iteratorINS1_6bufferIcEEEcEEEEE10check_signEv	00000000 .xt.lit._ZN3fmt2v68internal21numeric_specs_checkerINS1_13specs_handlerINS0_26basic_format_parse_contextIcNS1_13error_handlerEEENS0_20basic_format_contextISt20back_insert_iteratorINS1_6bufferIcEEEcEEEEE10check_signEv
00000000 l    d  .xt.lit._ZN3fmt2v68internal21parse_float_type_specINS1_13error_handlerEcEENS1_11float_specsERKNS0_18basic_format_specsIT0_EEOT_	00000000 .xt.lit._ZN3fmt2v68internal21parse_float_type_specINS1_13error_handlerEcEENS1_11float_specsERKNS0_18basic_format_specsIT0_EEOT_
00000000 l    d  .xt.lit._ZN3fmt2v68internal6bufferIcE9push_backERKc	00000000 .xt.lit._ZN3fmt2v68internal6bufferIcE9push_backERKc
00000000 l    d  .xt.lit._ZN3fmt2v68internal21parse_nonnegative_intIcRNS1_17precision_adapterIRNS1_13specs_checkerINS1_13specs_handlerINS0_26basic_format_parse_contextIcNS1_13error_handlerEEENS0_20basic_format_contextISt20back_insert_iteratorINS1_6bufferIcEEEcEEEEEEcEEEEiRPKT_SM_OT0_	00000000 .xt.lit._ZN3fmt2v68internal21parse_nonnegative_intIcRNS1_17precision_adapterIRNS1_13specs_checkerINS1_13specs_handlerINS0_26basic_format_parse_contextIcNS1_13error_handlerEEENS0_20basic_format_contextISt20back_insert_iteratorINS1_6bufferIcEEEcEEEEEEcEEEEiRPKT_SM_OT0_
00000000 l    d  .xt.lit._ZNK3fmt2v617basic_format_argsINS0_20basic_format_contextISt20back_insert_iteratorINS0_8internal6bufferIcEEEcEEE6do_getEi	00000000 .xt.lit._ZNK3fmt2v617basic_format_argsINS0_20basic_format_contextISt20back_insert_iteratorINS0_8internal6bufferIcEEEcEEE6do_getEi
00000000 l    d  .xt.lit._ZNK3fmt2v68internal14named_arg_baseIcE11deserializeINS0_20basic_format_contextISt20back_insert_iteratorINS1_6bufferIcEEEcEEEENS0_16basic_format_argIT_EEv	00000000 .xt.lit._ZNK3fmt2v68internal14named_arg_baseIcE11deserializeINS0_20basic_format_contextISt20back_insert_iteratorINS1_6bufferIcEEEcEEEENS0_16basic_format_argIT_EEv
00000000 l    d  .xt.lit._ZN3fmt2v68internal7get_argINS0_20basic_format_contextISt20back_insert_iteratorINS1_6bufferIcEEEcEEEENT_10format_argERS9_i	00000000 .xt.lit._ZN3fmt2v68internal7get_argINS0_20basic_format_contextISt20back_insert_iteratorINS1_6bufferIcEEEcEEEENT_10format_argERS9_i
00000000 l    d  .xt.lit._ZN3fmt2v614format_handlerINS0_13arg_formatterINS0_12buffer_rangeIcEEEEcNS0_20basic_format_contextISt20back_insert_iteratorINS0_8internal6bufferIcEEEcEEE7get_argEi	00000000 .xt.lit._ZN3fmt2v614format_handlerINS0_13arg_formatterINS0_12buffer_rangeIcEEEEcNS0_20basic_format_contextISt20back_insert_iteratorINS0_8internal6bufferIcEEEcEEE7get_argEi
00000000 l    d  .xt.lit._ZN3fmt2v614format_handlerINS0_13arg_formatterINS0_12buffer_rangeIcEEEEcNS0_20basic_format_contextISt20back_insert_iteratorINS0_8internal6bufferIcEEEcEEE9on_arg_idEv	00000000 .xt.lit._ZN3fmt2v614format_handlerINS0_13arg_formatterINS0_12buffer_rangeIcEEEEcNS0_20basic_format_contextISt20back_insert_iteratorINS0_8internal6bufferIcEEEcEEE9on_arg_idEv
00000000 l    d  .xt.lit._ZN3fmt2v68internal7arg_mapINS0_20basic_format_contextISt20back_insert_iteratorINS1_6bufferIcEEEcEEE4initERKNS0_17basic_format_argsIS8_EE	00000000 .xt.lit._ZN3fmt2v68internal7arg_mapINS0_20basic_format_contextISt20back_insert_iteratorINS1_6bufferIcEEEcEEE4initERKNS0_17basic_format_argsIS8_EE
00000000 l    d  .xt.lit._ZN3fmt2v620basic_format_contextISt20back_insert_iteratorINS0_8internal6bufferIcEEEcE3argENS0_17basic_string_viewIcEE	00000000 .xt.lit._ZN3fmt2v620basic_format_contextISt20back_insert_iteratorINS0_8internal6bufferIcEEEcE3argENS0_17basic_string_viewIcEE
00000000 l    d  .xt.lit._ZN3fmt2v68internal12parse_arg_idIcNS1_10id_adapterIRNS0_14format_handlerINS0_13arg_formatterINS0_12buffer_rangeIcEEEEcNS0_20basic_format_contextISt20back_insert_iteratorINS1_6bufferIcEEEcEEEEcEEEEPKT_SK_SK_OT0_	00000000 .xt.lit._ZN3fmt2v68internal12parse_arg_idIcNS1_10id_adapterIRNS0_14format_handlerINS0_13arg_formatterINS0_12buffer_rangeIcEEEEcNS0_20basic_format_contextISt20back_insert_iteratorINS1_6bufferIcEEEcEEEEcEEEEPKT_SK_SK_OT0_
00000000 l    d  .xt.lit._ZNSt11__copy_moveILb0ELb1ESt26random_access_iterator_tagE8__copy_mIcEEPT_PKS3_S6_S4_	00000000 .xt.lit._ZNSt11__copy_moveILb0ELb1ESt26random_access_iterator_tagE8__copy_mIcEEPT_PKS3_S6_S4_
00000000 l    d  .xt.lit._ZN3fmt2v614format_handlerINS0_13arg_formatterINS0_12buffer_rangeIcEEEEcNS0_20basic_format_contextISt20back_insert_iteratorINS0_8internal6bufferIcEEEcEEE7on_textEPKcSF_	00000000 .xt.lit._ZN3fmt2v614format_handlerINS0_13arg_formatterINS0_12buffer_rangeIcEEEEcNS0_20basic_format_contextISt20back_insert_iteratorINS0_8internal6bufferIcEEEcEEE7on_textEPKcSF_
00000000 l    d  .xt.lit._ZZN3fmt2v68internal19parse_format_stringILb0EcRNS0_14format_handlerINS0_13arg_formatterINS0_12buffer_rangeIcEEEEcNS0_20basic_format_contextISt20back_insert_iteratorINS1_6bufferIcEEEcEEEEEEvNS0_17basic_string_viewIT0_EEOT1_EN10pfs_writerclEPKcSN_	00000000 .xt.lit._ZZN3fmt2v68internal19parse_format_stringILb0EcRNS0_14format_handlerINS0_13arg_formatterINS0_12buffer_rangeIcEEEEcNS0_20basic_format_contextISt20back_insert_iteratorINS1_6bufferIcEEEcEEEEEEvNS0_17basic_string_viewIT0_EEOT1_EN10pfs_writerclEPKcSN_
00000000 l    d  .xt.lit._ZNK3fmt2v68internal12basic_writerINS0_12buffer_rangeIcEEE10str_writerIcEclIRPcEEvOT_	00000000 .xt.lit._ZNK3fmt2v68internal12basic_writerINS0_12buffer_rangeIcEEE10str_writerIcEclIRPcEEvOT_
00000000 l    d  .xt.lit._ZN3fmt2v68internal12basic_writerINS0_12buffer_rangeIcEEE5writeENS0_17basic_string_viewIcEE	00000000 .xt.lit._ZN3fmt2v68internal12basic_writerINS0_12buffer_rangeIcEEE5writeENS0_17basic_string_viewIcEE
00000000 l    d  .xt.lit._ZNK3fmt2v68internal16nonfinite_writerIcEclIRPcEEvOT_	00000000 .xt.lit._ZNK3fmt2v68internal16nonfinite_writerIcEclIRPcEEvOT_
00000000 l    d  .xt.lit._ZN3fmt2v68internal4fillIPccEET_S4_jRKNS1_6fill_tIT0_EE	00000000 .xt.lit._ZN3fmt2v68internal4fillIPccEET_S4_jRKNS1_6fill_tIT0_EE
00000000 l    d  .xt.lit._ZN3fmt2v68internal12basic_writerINS0_12buffer_rangeIcEEE12write_paddedINS5_10str_writerIcEEEEvRKNS0_18basic_format_specsIcEEOT_	00000000 .xt.lit._ZN3fmt2v68internal12basic_writerINS0_12buffer_rangeIcEEE12write_paddedINS5_10str_writerIcEEEEvRKNS0_18basic_format_specsIcEEOT_
00000000 l    d  .xt.lit._ZN3fmt2v68internal12basic_writerINS0_12buffer_rangeIcEEE5writeIcEEvNS0_17basic_string_viewIT_EERKNS0_18basic_format_specsIcEE	00000000 .xt.lit._ZN3fmt2v68internal12basic_writerINS0_12buffer_rangeIcEEE5writeIcEEvNS0_17basic_string_viewIT_EERKNS0_18basic_format_specsIcEE
00000000 l    d  .xt.lit._ZN3fmt2v68internal18arg_formatter_baseINS0_12buffer_rangeIcEENS1_13error_handlerEE5writeEPKc	00000000 .xt.lit._ZN3fmt2v68internal18arg_formatter_baseINS0_12buffer_rangeIcEENS1_13error_handlerEE5writeEPKc
00000000 l    d  .xt.lit._ZN3fmt2v68internal12basic_writerINS0_12buffer_rangeIcEEE12write_paddedINS1_16nonfinite_writerIcEEEEvRKNS0_18basic_format_specsIcEEOT_	00000000 .xt.lit._ZN3fmt2v68internal12basic_writerINS0_12buffer_rangeIcEEE12write_paddedINS1_16nonfinite_writerIcEEEEvRKNS0_18basic_format_specsIcEEOT_
00000000 l    d  .xt.lit._ZN3fmt2v619basic_memory_bufferIcLj500ESaIcEE4growEj	00000000 .xt.lit._ZN3fmt2v619basic_memory_bufferIcLj500ESaIcEE4growEj
00000000 l    d  .xt.lit._ZN3fmt2v68internal12basic_writerINS0_12buffer_rangeIcEEE12write_paddedINS1_18arg_formatter_baseIS4_NS1_13error_handlerEE11char_writerEEEvRKNS0_18basic_format_specsIcEEOT_	00000000 .xt.lit._ZN3fmt2v68internal12basic_writerINS0_12buffer_rangeIcEEE12write_paddedINS1_18arg_formatter_baseIS4_NS1_13error_handlerEE11char_writerEEEvRKNS0_18basic_format_specsIcEEOT_
00000000 l    d  .xt.lit._ZN3fmt2v68internal18arg_formatter_baseINS0_12buffer_rangeIcEENS1_13error_handlerEE10write_charEc	00000000 .xt.lit._ZN3fmt2v68internal18arg_formatter_baseINS0_12buffer_rangeIcEENS1_13error_handlerEE10write_charEc
00000000 l    d  .xt.lit._ZNK3fmt2v68internal12float_writerIcE8prettifyINS1_17counting_iteratorEEET_S6_	00000000 .xt.lit._ZNK3fmt2v68internal12float_writerIcE8prettifyINS1_17counting_iteratorEEET_S6_
00000000 l    d  .xt.lit._ZN3fmt2v68internal12float_writerIcEC5EPKciiNS1_11float_specsEc	00000000 .xt.lit._ZN3fmt2v68internal12float_writerIcEC5EPKciiNS1_11float_specsEc
00000000 l    d  .xt.lit._ZNK3fmt2v68internal12float_writerIcE8prettifyIPcEET_S6_	00000000 .xt.lit._ZNK3fmt2v68internal12float_writerIcE8prettifyIPcEET_S6_
00000000 l    d  .xt.lit._ZN3fmt2v68internal12float_writerIcEclIRPcEEvOT_	00000000 .xt.lit._ZN3fmt2v68internal12float_writerIcEclIRPcEEvOT_
00000000 l    d  .xt.lit._ZN3fmt2v68internal12basic_writerINS0_12buffer_rangeIcEEE12write_paddedINS1_12float_writerIcEEEEvRKNS0_18basic_format_specsIcEEOT_	00000000 .xt.lit._ZN3fmt2v68internal12basic_writerINS0_12buffer_rangeIcEEE12write_paddedINS1_12float_writerIcEEEEvRKNS0_18basic_format_specsIcEEOT_
00000000 l    d  .xt.lit._ZN3fmt2v68internal12basic_writerINS0_12buffer_rangeIcEEE5writeIfLi0EEEvT_NS0_18basic_format_specsIcEE	00000000 .xt.lit._ZN3fmt2v68internal12basic_writerINS0_12buffer_rangeIcEEE5writeIfLi0EEEvT_NS0_18basic_format_specsIcEE
00000000 l    d  .xt.lit._ZN3fmt2v68internal12basic_writerINS0_12buffer_rangeIcEEE5writeIdLi0EEEvT_NS0_18basic_format_specsIcEE	00000000 .xt.lit._ZN3fmt2v68internal12basic_writerINS0_12buffer_rangeIcEEE5writeIdLi0EEEvT_NS0_18basic_format_specsIcEE
00000000 l    d  .xt.lit._ZN3fmt2v68internal12basic_writerINS0_12buffer_rangeIcEEE5writeIeLi0EEEvT_NS0_18basic_format_specsIcEE	00000000 .xt.lit._ZN3fmt2v68internal12basic_writerINS0_12buffer_rangeIcEEE5writeIeLi0EEEvT_NS0_18basic_format_specsIcEE
00000000 l    d  .xt.lit._ZN3fmt2v68internal11format_uintILj4EcjEEPT0_S4_T1_ib	00000000 .xt.lit._ZN3fmt2v68internal11format_uintILj4EcjEEPT0_S4_T1_ib
00000000 l    d  .xt.lit._ZNK3fmt2v68internal12basic_writerINS0_12buffer_rangeIcEEE14pointer_writerIjEclIRPcEEvOT_	00000000 .xt.lit._ZNK3fmt2v68internal12basic_writerINS0_12buffer_rangeIcEEE14pointer_writerIjEclIRPcEEvOT_
00000000 l    d  .xt.lit._ZN3fmt2v68internal12basic_writerINS0_12buffer_rangeIcEEE12write_paddedIRNS5_14pointer_writerIjEEEEvRKNS0_18basic_format_specsIcEEOT_	00000000 .xt.lit._ZN3fmt2v68internal12basic_writerINS0_12buffer_rangeIcEEE12write_paddedIRNS5_14pointer_writerIjEEEEvRKNS0_18basic_format_specsIcEEOT_
00000000 l    d  .xt.lit._ZN3fmt2v68internal12basic_writerINS0_12buffer_rangeIcEEE13write_pointerIjEEvT_PKNS0_18basic_format_specsIcEE	00000000 .xt.lit._ZN3fmt2v68internal12basic_writerINS0_12buffer_rangeIcEEE13write_pointerIjEEvT_PKNS0_18basic_format_specsIcEE
00000000 l    d  .xt.lit._ZN3fmt2v68internal18arg_formatter_baseINS0_12buffer_rangeIcEENS1_13error_handlerEE13write_pointerEPKv	00000000 .xt.lit._ZN3fmt2v68internal18arg_formatter_baseINS0_12buffer_rangeIcEENS1_13error_handlerEE13write_pointerEPKv
00000000 l    d  .xt.lit._ZN3fmt2v616visit_format_argINS0_8internal13width_checkerINS2_13error_handlerEEENS0_20basic_format_contextISt20back_insert_iteratorINS2_6bufferIcEEEcEEEEDTclfp_Li0EEEOT_RKNS0_16basic_format_argIT0_EE	00000000 .xt.lit._ZN3fmt2v616visit_format_argINS0_8internal13width_checkerINS2_13error_handlerEEENS0_20basic_format_contextISt20back_insert_iteratorINS2_6bufferIcEEEcEEEEDTclfp_Li0EEEOT_RKNS0_16basic_format_argIT0_EE
00000000 l    d  .xt.lit._ZN3fmt2v68internal16get_dynamic_specINS1_13width_checkerENS0_16basic_format_argINS0_20basic_format_contextISt20back_insert_iteratorINS1_6bufferIcEEEcEEEENS1_13error_handlerEEEiT0_T1_	00000000 .xt.lit._ZN3fmt2v68internal16get_dynamic_specINS1_13width_checkerENS0_16basic_format_argINS0_20basic_format_contextISt20back_insert_iteratorINS1_6bufferIcEEEcEEEENS1_13error_handlerEEEiT0_T1_
00000000 l    d  .xt.lit._ZN3fmt2v68internal12parse_arg_idIcNS1_13width_adapterIRNS1_13specs_checkerINS1_13specs_handlerINS0_26basic_format_parse_contextIcNS1_13error_handlerEEENS0_20basic_format_contextISt20back_insert_iteratorINS1_6bufferIcEEEcEEEEEEcEEEEPKT_SL_SL_OT0_	00000000 .xt.lit._ZN3fmt2v68internal12parse_arg_idIcNS1_13width_adapterIRNS1_13specs_checkerINS1_13specs_handlerINS0_26basic_format_parse_contextIcNS1_13error_handlerEEENS0_20basic_format_contextISt20back_insert_iteratorINS1_6bufferIcEEEcEEEEEEcEEEEPKT_SL_SL_OT0_
00000000 l    d  .xt.lit._ZN3fmt2v616visit_format_argINS0_8internal17precision_checkerINS2_13error_handlerEEENS0_20basic_format_contextISt20back_insert_iteratorINS2_6bufferIcEEEcEEEEDTclfp_Li0EEEOT_RKNS0_16basic_format_argIT0_EE	00000000 .xt.lit._ZN3fmt2v616visit_format_argINS0_8internal17precision_checkerINS2_13error_handlerEEENS0_20basic_format_contextISt20back_insert_iteratorINS2_6bufferIcEEEcEEEEDTclfp_Li0EEEOT_RKNS0_16basic_format_argIT0_EE
00000000 l    d  .xt.lit._ZN3fmt2v68internal16get_dynamic_specINS1_17precision_checkerENS0_16basic_format_argINS0_20basic_format_contextISt20back_insert_iteratorINS1_6bufferIcEEEcEEEENS1_13error_handlerEEEiT0_T1_	00000000 .xt.lit._ZN3fmt2v68internal16get_dynamic_specINS1_17precision_checkerENS0_16basic_format_argINS0_20basic_format_contextISt20back_insert_iteratorINS1_6bufferIcEEEcEEEENS1_13error_handlerEEEiT0_T1_
00000000 l    d  .xt.lit._ZN3fmt2v68internal12parse_arg_idIcNS1_17precision_adapterIRNS1_13specs_checkerINS1_13specs_handlerINS0_26basic_format_parse_contextIcNS1_13error_handlerEEENS0_20basic_format_contextISt20back_insert_iteratorINS1_6bufferIcEEEcEEEEEEcEEEEPKT_SL_SL_OT0_	00000000 .xt.lit._ZN3fmt2v68internal12parse_arg_idIcNS1_17precision_adapterIRNS1_13specs_checkerINS1_13specs_handlerINS0_26basic_format_parse_contextIcNS1_13error_handlerEEENS0_20basic_format_contextISt20back_insert_iteratorINS1_6bufferIcEEEcEEEEEEcEEEEPKT_SL_SL_OT0_
00000000 l    d  .xt.lit._ZN3fmt2v68internal15parse_precisionIcRNS1_13specs_checkerINS1_13specs_handlerINS0_26basic_format_parse_contextIcNS1_13error_handlerEEENS0_20basic_format_contextISt20back_insert_iteratorINS1_6bufferIcEEEcEEEEEEEEPKT_SJ_SJ_OT0_	00000000 .xt.lit._ZN3fmt2v68internal15parse_precisionIcRNS1_13specs_checkerINS1_13specs_handlerINS0_26basic_format_parse_contextIcNS1_13error_handlerEEENS0_20basic_format_contextISt20back_insert_iteratorINS1_6bufferIcEEEcEEEEEEEEPKT_SJ_SJ_OT0_
00000000 l    d  .xt.lit._ZN3fmt2v68internal18parse_format_specsIcRNS1_13specs_checkerINS1_13specs_handlerINS0_26basic_format_parse_contextIcNS1_13error_handlerEEENS0_20basic_format_contextISt20back_insert_iteratorINS1_6bufferIcEEEcEEEEEEEEPKT_SJ_SJ_OT0_	00000000 .xt.lit._ZN3fmt2v68internal18parse_format_specsIcRNS1_13specs_checkerINS1_13specs_handlerINS0_26basic_format_parse_contextIcNS1_13error_handlerEEENS0_20basic_format_contextISt20back_insert_iteratorINS1_6bufferIcEEEcEEEEEEEEPKT_SJ_SJ_OT0_
00000000 l    d  .xt.lit._ZNK3fmt2v68internal12basic_writerINS0_12buffer_rangeIcEEE17padded_int_writerINS5_10int_writerIiNS0_18basic_format_specsIcEEE10dec_writerEEclIRPcEEvOT_	00000000 .xt.lit._ZNK3fmt2v68internal12basic_writerINS0_12buffer_rangeIcEEE17padded_int_writerINS5_10int_writerIiNS0_18basic_format_specsIcEEE10dec_writerEEclIRPcEEvOT_
00000000 l    d  .xt.lit._ZN3fmt2v68internal12basic_writerINS0_12buffer_rangeIcEEE12write_paddedINS5_17padded_int_writerINS5_10int_writerIiNS0_18basic_format_specsIcEEE10dec_writerEEEEEvRKSA_OT_	00000000 .xt.lit._ZN3fmt2v68internal12basic_writerINS0_12buffer_rangeIcEEE12write_paddedINS5_17padded_int_writerINS5_10int_writerIiNS0_18basic_format_specsIcEEE10dec_writerEEEEEvRKSA_OT_
00000000 l    d  .xt.lit._ZN3fmt2v68internal12basic_writerINS0_12buffer_rangeIcEEE10int_writerIiNS0_18basic_format_specsIcEEE6on_decEv	00000000 .xt.lit._ZN3fmt2v68internal12basic_writerINS0_12buffer_rangeIcEEE10int_writerIiNS0_18basic_format_specsIcEEE6on_decEv
00000000 l    d  .xt.lit._ZNK3fmt2v68internal12basic_writerINS0_12buffer_rangeIcEEE17padded_int_writerINS5_10int_writerIiNS0_18basic_format_specsIcEEE10hex_writerEEclIRPcEEvOT_	00000000 .xt.lit._ZNK3fmt2v68internal12basic_writerINS0_12buffer_rangeIcEEE17padded_int_writerINS5_10int_writerIiNS0_18basic_format_specsIcEEE10hex_writerEEclIRPcEEvOT_
00000000 l    d  .xt.lit._ZN3fmt2v68internal12basic_writerINS0_12buffer_rangeIcEEE12write_paddedINS5_17padded_int_writerINS5_10int_writerIiNS0_18basic_format_specsIcEEE10hex_writerEEEEEvRKSA_OT_	00000000 .xt.lit._ZN3fmt2v68internal12basic_writerINS0_12buffer_rangeIcEEE12write_paddedINS5_17padded_int_writerINS5_10int_writerIiNS0_18basic_format_specsIcEEE10hex_writerEEEEEvRKSA_OT_
00000000 l    d  .xt.lit._ZN3fmt2v68internal12basic_writerINS0_12buffer_rangeIcEEE10int_writerIiNS0_18basic_format_specsIcEEE6on_hexEv	00000000 .xt.lit._ZN3fmt2v68internal12basic_writerINS0_12buffer_rangeIcEEE10int_writerIiNS0_18basic_format_specsIcEEE6on_hexEv
00000000 l    d  .xt.lit._ZNK3fmt2v68internal12basic_writerINS0_12buffer_rangeIcEEE17padded_int_writerINS5_10int_writerIiNS0_18basic_format_specsIcEEE10bin_writerILi1EEEEclIRPcEEvOT_	00000000 .xt.lit._ZNK3fmt2v68internal12basic_writerINS0_12buffer_rangeIcEEE17padded_int_writerINS5_10int_writerIiNS0_18basic_format_specsIcEEE10bin_writerILi1EEEEclIRPcEEvOT_
00000000 l    d  .xt.lit._ZN3fmt2v68internal12basic_writerINS0_12buffer_rangeIcEEE12write_paddedINS5_17padded_int_writerINS5_10int_writerIiNS0_18basic_format_specsIcEEE10bin_writerILi1EEEEEEEvRKSA_OT_	00000000 .xt.lit._ZN3fmt2v68internal12basic_writerINS0_12buffer_rangeIcEEE12write_paddedINS5_17padded_int_writerINS5_10int_writerIiNS0_18basic_format_specsIcEEE10bin_writerILi1EEEEEEEvRKSA_OT_
00000000 l    d  .xt.lit._ZN3fmt2v68internal12basic_writerINS0_12buffer_rangeIcEEE10int_writerIiNS0_18basic_format_specsIcEEE6on_binEv	00000000 .xt.lit._ZN3fmt2v68internal12basic_writerINS0_12buffer_rangeIcEEE10int_writerIiNS0_18basic_format_specsIcEEE6on_binEv
00000000 l    d  .xt.lit._ZNK3fmt2v68internal12basic_writerINS0_12buffer_rangeIcEEE17padded_int_writerINS5_10int_writerIiNS0_18basic_format_specsIcEEE10bin_writerILi3EEEEclIRPcEEvOT_	00000000 .xt.lit._ZNK3fmt2v68internal12basic_writerINS0_12buffer_rangeIcEEE17padded_int_writerINS5_10int_writerIiNS0_18basic_format_specsIcEEE10bin_writerILi3EEEEclIRPcEEvOT_
00000000 l    d  .xt.lit._ZN3fmt2v68internal12basic_writerINS0_12buffer_rangeIcEEE12write_paddedINS5_17padded_int_writerINS5_10int_writerIiNS0_18basic_format_specsIcEEE10bin_writerILi3EEEEEEEvRKSA_OT_	00000000 .xt.lit._ZN3fmt2v68internal12basic_writerINS0_12buffer_rangeIcEEE12write_paddedINS5_17padded_int_writerINS5_10int_writerIiNS0_18basic_format_specsIcEEE10bin_writerILi3EEEEEEEvRKSA_OT_
00000000 l    d  .xt.lit._ZN3fmt2v68internal12basic_writerINS0_12buffer_rangeIcEEE10int_writerIiNS0_18basic_format_specsIcEEE6on_octEv	00000000 .xt.lit._ZN3fmt2v68internal12basic_writerINS0_12buffer_rangeIcEEE10int_writerIiNS0_18basic_format_specsIcEEE6on_octEv
00000000 l    d  .xt.lit._ZNK3fmt2v68internal12basic_writerINS0_12buffer_rangeIcEEE17padded_int_writerINS5_10int_writerIjNS0_18basic_format_specsIcEEE10dec_writerEEclIRPcEEvOT_	00000000 .xt.lit._ZNK3fmt2v68internal12basic_writerINS0_12buffer_rangeIcEEE17padded_int_writerINS5_10int_writerIjNS0_18basic_format_specsIcEEE10dec_writerEEclIRPcEEvOT_
00000000 l    d  .xt.lit._ZN3fmt2v68internal12basic_writerINS0_12buffer_rangeIcEEE12write_paddedINS5_17padded_int_writerINS5_10int_writerIjNS0_18basic_format_specsIcEEE10dec_writerEEEEEvRKSA_OT_	00000000 .xt.lit._ZN3fmt2v68internal12basic_writerINS0_12buffer_rangeIcEEE12write_paddedINS5_17padded_int_writerINS5_10int_writerIjNS0_18basic_format_specsIcEEE10dec_writerEEEEEvRKSA_OT_
00000000 l    d  .xt.lit._ZN3fmt2v68internal12basic_writerINS0_12buffer_rangeIcEEE10int_writerIjNS0_18basic_format_specsIcEEE6on_decEv	00000000 .xt.lit._ZN3fmt2v68internal12basic_writerINS0_12buffer_rangeIcEEE10int_writerIjNS0_18basic_format_specsIcEEE6on_decEv
00000000 l    d  .xt.lit._ZNK3fmt2v68internal12basic_writerINS0_12buffer_rangeIcEEE17padded_int_writerINS5_10int_writerIjNS0_18basic_format_specsIcEEE10hex_writerEEclIRPcEEvOT_	00000000 .xt.lit._ZNK3fmt2v68internal12basic_writerINS0_12buffer_rangeIcEEE17padded_int_writerINS5_10int_writerIjNS0_18basic_format_specsIcEEE10hex_writerEEclIRPcEEvOT_
00000000 l    d  .xt.lit._ZN3fmt2v68internal12basic_writerINS0_12buffer_rangeIcEEE12write_paddedINS5_17padded_int_writerINS5_10int_writerIjNS0_18basic_format_specsIcEEE10hex_writerEEEEEvRKSA_OT_	00000000 .xt.lit._ZN3fmt2v68internal12basic_writerINS0_12buffer_rangeIcEEE12write_paddedINS5_17padded_int_writerINS5_10int_writerIjNS0_18basic_format_specsIcEEE10hex_writerEEEEEvRKSA_OT_
00000000 l    d  .xt.lit._ZN3fmt2v68internal12basic_writerINS0_12buffer_rangeIcEEE10int_writerIjNS0_18basic_format_specsIcEEE6on_hexEv	00000000 .xt.lit._ZN3fmt2v68internal12basic_writerINS0_12buffer_rangeIcEEE10int_writerIjNS0_18basic_format_specsIcEEE6on_hexEv
00000000 l    d  .xt.lit._ZNK3fmt2v68internal12basic_writerINS0_12buffer_rangeIcEEE17padded_int_writerINS5_10int_writerIjNS0_18basic_format_specsIcEEE10bin_writerILi1EEEEclIRPcEEvOT_	00000000 .xt.lit._ZNK3fmt2v68internal12basic_writerINS0_12buffer_rangeIcEEE17padded_int_writerINS5_10int_writerIjNS0_18basic_format_specsIcEEE10bin_writerILi1EEEEclIRPcEEvOT_
00000000 l    d  .xt.lit._ZN3fmt2v68internal12basic_writerINS0_12buffer_rangeIcEEE12write_paddedINS5_17padded_int_writerINS5_10int_writerIjNS0_18basic_format_specsIcEEE10bin_writerILi1EEEEEEEvRKSA_OT_	00000000 .xt.lit._ZN3fmt2v68internal12basic_writerINS0_12buffer_rangeIcEEE12write_paddedINS5_17padded_int_writerINS5_10int_writerIjNS0_18basic_format_specsIcEEE10bin_writerILi1EEEEEEEvRKSA_OT_
00000000 l    d  .xt.lit._ZN3fmt2v68internal12basic_writerINS0_12buffer_rangeIcEEE10int_writerIjNS0_18basic_format_specsIcEEE6on_binEv	00000000 .xt.lit._ZN3fmt2v68internal12basic_writerINS0_12buffer_rangeIcEEE10int_writerIjNS0_18basic_format_specsIcEEE6on_binEv
00000000 l    d  .xt.lit._ZNK3fmt2v68internal12basic_writerINS0_12buffer_rangeIcEEE17padded_int_writerINS5_10int_writerIjNS0_18basic_format_specsIcEEE10bin_writerILi3EEEEclIRPcEEvOT_	00000000 .xt.lit._ZNK3fmt2v68internal12basic_writerINS0_12buffer_rangeIcEEE17padded_int_writerINS5_10int_writerIjNS0_18basic_format_specsIcEEE10bin_writerILi3EEEEclIRPcEEvOT_
00000000 l    d  .xt.lit._ZN3fmt2v68internal12basic_writerINS0_12buffer_rangeIcEEE12write_paddedINS5_17padded_int_writerINS5_10int_writerIjNS0_18basic_format_specsIcEEE10bin_writerILi3EEEEEEEvRKSA_OT_	00000000 .xt.lit._ZN3fmt2v68internal12basic_writerINS0_12buffer_rangeIcEEE12write_paddedINS5_17padded_int_writerINS5_10int_writerIjNS0_18basic_format_specsIcEEE10bin_writerILi3EEEEEEEvRKSA_OT_
00000000 l    d  .xt.lit._ZN3fmt2v68internal12basic_writerINS0_12buffer_rangeIcEEE10int_writerIjNS0_18basic_format_specsIcEEE6on_octEv	00000000 .xt.lit._ZN3fmt2v68internal12basic_writerINS0_12buffer_rangeIcEEE10int_writerIjNS0_18basic_format_specsIcEEE6on_octEv
00000000 l    d  .xt.lit._ZNK3fmt2v68internal12basic_writerINS0_12buffer_rangeIcEEE17padded_int_writerINS5_10int_writerIxNS0_18basic_format_specsIcEEE10dec_writerEEclIRPcEEvOT_	00000000 .xt.lit._ZNK3fmt2v68internal12basic_writerINS0_12buffer_rangeIcEEE17padded_int_writerINS5_10int_writerIxNS0_18basic_format_specsIcEEE10dec_writerEEclIRPcEEvOT_
00000000 l    d  .xt.lit._ZN3fmt2v68internal12basic_writerINS0_12buffer_rangeIcEEE12write_paddedINS5_17padded_int_writerINS5_10int_writerIxNS0_18basic_format_specsIcEEE10dec_writerEEEEEvRKSA_OT_	00000000 .xt.lit._ZN3fmt2v68internal12basic_writerINS0_12buffer_rangeIcEEE12write_paddedINS5_17padded_int_writerINS5_10int_writerIxNS0_18basic_format_specsIcEEE10dec_writerEEEEEvRKSA_OT_
00000000 l    d  .xt.lit._ZN3fmt2v68internal12basic_writerINS0_12buffer_rangeIcEEE10int_writerIxNS0_18basic_format_specsIcEEE6on_decEv	00000000 .xt.lit._ZN3fmt2v68internal12basic_writerINS0_12buffer_rangeIcEEE10int_writerIxNS0_18basic_format_specsIcEEE6on_decEv
00000000 l    d  .xt.lit._ZNK3fmt2v68internal12basic_writerINS0_12buffer_rangeIcEEE17padded_int_writerINS5_10int_writerIxNS0_18basic_format_specsIcEEE10hex_writerEEclIRPcEEvOT_	00000000 .xt.lit._ZNK3fmt2v68internal12basic_writerINS0_12buffer_rangeIcEEE17padded_int_writerINS5_10int_writerIxNS0_18basic_format_specsIcEEE10hex_writerEEclIRPcEEvOT_
00000000 l    d  .xt.lit._ZN3fmt2v68internal12basic_writerINS0_12buffer_rangeIcEEE12write_paddedINS5_17padded_int_writerINS5_10int_writerIxNS0_18basic_format_specsIcEEE10hex_writerEEEEEvRKSA_OT_	00000000 .xt.lit._ZN3fmt2v68internal12basic_writerINS0_12buffer_rangeIcEEE12write_paddedINS5_17padded_int_writerINS5_10int_writerIxNS0_18basic_format_specsIcEEE10hex_writerEEEEEvRKSA_OT_
00000000 l    d  .xt.lit._ZN3fmt2v68internal12basic_writerINS0_12buffer_rangeIcEEE10int_writerIxNS0_18basic_format_specsIcEEE6on_hexEv	00000000 .xt.lit._ZN3fmt2v68internal12basic_writerINS0_12buffer_rangeIcEEE10int_writerIxNS0_18basic_format_specsIcEEE6on_hexEv
00000000 l    d  .xt.lit._ZNK3fmt2v68internal12basic_writerINS0_12buffer_rangeIcEEE17padded_int_writerINS5_10int_writerIxNS0_18basic_format_specsIcEEE10bin_writerILi1EEEEclIRPcEEvOT_	00000000 .xt.lit._ZNK3fmt2v68internal12basic_writerINS0_12buffer_rangeIcEEE17padded_int_writerINS5_10int_writerIxNS0_18basic_format_specsIcEEE10bin_writerILi1EEEEclIRPcEEvOT_
00000000 l    d  .xt.lit._ZN3fmt2v68internal12basic_writerINS0_12buffer_rangeIcEEE12write_paddedINS5_17padded_int_writerINS5_10int_writerIxNS0_18basic_format_specsIcEEE10bin_writerILi1EEEEEEEvRKSA_OT_	00000000 .xt.lit._ZN3fmt2v68internal12basic_writerINS0_12buffer_rangeIcEEE12write_paddedINS5_17padded_int_writerINS5_10int_writerIxNS0_18basic_format_specsIcEEE10bin_writerILi1EEEEEEEvRKSA_OT_
00000000 l    d  .xt.lit._ZN3fmt2v68internal12basic_writerINS0_12buffer_rangeIcEEE10int_writerIxNS0_18basic_format_specsIcEEE6on_binEv	00000000 .xt.lit._ZN3fmt2v68internal12basic_writerINS0_12buffer_rangeIcEEE10int_writerIxNS0_18basic_format_specsIcEEE6on_binEv
00000000 l    d  .xt.lit._ZNK3fmt2v68internal12basic_writerINS0_12buffer_rangeIcEEE17padded_int_writerINS5_10int_writerIxNS0_18basic_format_specsIcEEE10bin_writerILi3EEEEclIRPcEEvOT_	00000000 .xt.lit._ZNK3fmt2v68internal12basic_writerINS0_12buffer_rangeIcEEE17padded_int_writerINS5_10int_writerIxNS0_18basic_format_specsIcEEE10bin_writerILi3EEEEclIRPcEEvOT_
00000000 l    d  .xt.lit._ZN3fmt2v68internal12basic_writerINS0_12buffer_rangeIcEEE12write_paddedINS5_17padded_int_writerINS5_10int_writerIxNS0_18basic_format_specsIcEEE10bin_writerILi3EEEEEEEvRKSA_OT_	00000000 .xt.lit._ZN3fmt2v68internal12basic_writerINS0_12buffer_rangeIcEEE12write_paddedINS5_17padded_int_writerINS5_10int_writerIxNS0_18basic_format_specsIcEEE10bin_writerILi3EEEEEEEvRKSA_OT_
00000000 l    d  .xt.lit._ZN3fmt2v68internal12basic_writerINS0_12buffer_rangeIcEEE10int_writerIxNS0_18basic_format_specsIcEEE6on_octEv	00000000 .xt.lit._ZN3fmt2v68internal12basic_writerINS0_12buffer_rangeIcEEE10int_writerIxNS0_18basic_format_specsIcEEE6on_octEv
00000000 l    d  .xt.lit._ZNK3fmt2v68internal12basic_writerINS0_12buffer_rangeIcEEE17padded_int_writerINS5_10int_writerIyNS0_18basic_format_specsIcEEE10dec_writerEEclIRPcEEvOT_	00000000 .xt.lit._ZNK3fmt2v68internal12basic_writerINS0_12buffer_rangeIcEEE17padded_int_writerINS5_10int_writerIyNS0_18basic_format_specsIcEEE10dec_writerEEclIRPcEEvOT_
00000000 l    d  .xt.lit._ZN3fmt2v68internal12basic_writerINS0_12buffer_rangeIcEEE12write_paddedINS5_17padded_int_writerINS5_10int_writerIyNS0_18basic_format_specsIcEEE10dec_writerEEEEEvRKSA_OT_	00000000 .xt.lit._ZN3fmt2v68internal12basic_writerINS0_12buffer_rangeIcEEE12write_paddedINS5_17padded_int_writerINS5_10int_writerIyNS0_18basic_format_specsIcEEE10dec_writerEEEEEvRKSA_OT_
00000000 l    d  .xt.lit._ZN3fmt2v68internal12basic_writerINS0_12buffer_rangeIcEEE10int_writerIyNS0_18basic_format_specsIcEEE6on_decEv	00000000 .xt.lit._ZN3fmt2v68internal12basic_writerINS0_12buffer_rangeIcEEE10int_writerIyNS0_18basic_format_specsIcEEE6on_decEv
00000000 l    d  .xt.lit._ZNK3fmt2v68internal12basic_writerINS0_12buffer_rangeIcEEE17padded_int_writerINS5_10int_writerIyNS0_18basic_format_specsIcEEE10hex_writerEEclIRPcEEvOT_	00000000 .xt.lit._ZNK3fmt2v68internal12basic_writerINS0_12buffer_rangeIcEEE17padded_int_writerINS5_10int_writerIyNS0_18basic_format_specsIcEEE10hex_writerEEclIRPcEEvOT_
00000000 l    d  .xt.lit._ZN3fmt2v68internal12basic_writerINS0_12buffer_rangeIcEEE12write_paddedINS5_17padded_int_writerINS5_10int_writerIyNS0_18basic_format_specsIcEEE10hex_writerEEEEEvRKSA_OT_	00000000 .xt.lit._ZN3fmt2v68internal12basic_writerINS0_12buffer_rangeIcEEE12write_paddedINS5_17padded_int_writerINS5_10int_writerIyNS0_18basic_format_specsIcEEE10hex_writerEEEEEvRKSA_OT_
00000000 l    d  .xt.lit._ZN3fmt2v68internal12basic_writerINS0_12buffer_rangeIcEEE10int_writerIyNS0_18basic_format_specsIcEEE6on_hexEv	00000000 .xt.lit._ZN3fmt2v68internal12basic_writerINS0_12buffer_rangeIcEEE10int_writerIyNS0_18basic_format_specsIcEEE6on_hexEv
00000000 l    d  .xt.lit._ZNK3fmt2v68internal12basic_writerINS0_12buffer_rangeIcEEE17padded_int_writerINS5_10int_writerIyNS0_18basic_format_specsIcEEE10bin_writerILi1EEEEclIRPcEEvOT_	00000000 .xt.lit._ZNK3fmt2v68internal12basic_writerINS0_12buffer_rangeIcEEE17padded_int_writerINS5_10int_writerIyNS0_18basic_format_specsIcEEE10bin_writerILi1EEEEclIRPcEEvOT_
00000000 l    d  .xt.lit._ZN3fmt2v68internal12basic_writerINS0_12buffer_rangeIcEEE12write_paddedINS5_17padded_int_writerINS5_10int_writerIyNS0_18basic_format_specsIcEEE10bin_writerILi1EEEEEEEvRKSA_OT_	00000000 .xt.lit._ZN3fmt2v68internal12basic_writerINS0_12buffer_rangeIcEEE12write_paddedINS5_17padded_int_writerINS5_10int_writerIyNS0_18basic_format_specsIcEEE10bin_writerILi1EEEEEEEvRKSA_OT_
00000000 l    d  .xt.lit._ZN3fmt2v68internal12basic_writerINS0_12buffer_rangeIcEEE10int_writerIyNS0_18basic_format_specsIcEEE6on_binEv	00000000 .xt.lit._ZN3fmt2v68internal12basic_writerINS0_12buffer_rangeIcEEE10int_writerIyNS0_18basic_format_specsIcEEE6on_binEv
00000000 l    d  .xt.lit._ZNK3fmt2v68internal12basic_writerINS0_12buffer_rangeIcEEE17padded_int_writerINS5_10int_writerIyNS0_18basic_format_specsIcEEE10bin_writerILi3EEEEclIRPcEEvOT_	00000000 .xt.lit._ZNK3fmt2v68internal12basic_writerINS0_12buffer_rangeIcEEE17padded_int_writerINS5_10int_writerIyNS0_18basic_format_specsIcEEE10bin_writerILi3EEEEclIRPcEEvOT_
00000000 l    d  .xt.lit._ZN3fmt2v68internal12basic_writerINS0_12buffer_rangeIcEEE12write_paddedINS5_17padded_int_writerINS5_10int_writerIyNS0_18basic_format_specsIcEEE10bin_writerILi3EEEEEEEvRKSA_OT_	00000000 .xt.lit._ZN3fmt2v68internal12basic_writerINS0_12buffer_rangeIcEEE12write_paddedINS5_17padded_int_writerINS5_10int_writerIyNS0_18basic_format_specsIcEEE10bin_writerILi3EEEEEEEvRKSA_OT_
00000000 l    d  .xt.lit._ZN3fmt2v68internal12basic_writerINS0_12buffer_rangeIcEEE10int_writerIyNS0_18basic_format_specsIcEEE6on_octEv	00000000 .xt.lit._ZN3fmt2v68internal12basic_writerINS0_12buffer_rangeIcEEE10int_writerIyNS0_18basic_format_specsIcEEE6on_octEv
00000000 l    d  .xt.lit._ZZNK3fmt2v68internal12basic_writerINS0_12buffer_rangeIcEEE10int_writerIiNS0_18basic_format_specsIcEEE10num_writerclIRPcEEvOT_ENKUlSD_E_clESD_	00000000 .xt.lit._ZZNK3fmt2v68internal12basic_writerINS0_12buffer_rangeIcEEE10int_writerIiNS0_18basic_format_specsIcEEE10num_writerclIRPcEEvOT_ENKUlSD_E_clESD_
00000000 l    d  .xt.lit._ZNK3fmt2v68internal12basic_writerINS0_12buffer_rangeIcEEE10int_writerIiNS0_18basic_format_specsIcEEE10num_writerclIRPcEEvOT_	00000000 .xt.lit._ZNK3fmt2v68internal12basic_writerINS0_12buffer_rangeIcEEE10int_writerIiNS0_18basic_format_specsIcEEE10num_writerclIRPcEEvOT_
00000000 l    d  .xt.lit._ZNK3fmt2v68internal12basic_writerINS0_12buffer_rangeIcEEE17padded_int_writerINS5_10int_writerIiNS0_18basic_format_specsIcEEE10num_writerEEclIRPcEEvOT_	00000000 .xt.lit._ZNK3fmt2v68internal12basic_writerINS0_12buffer_rangeIcEEE17padded_int_writerINS5_10int_writerIiNS0_18basic_format_specsIcEEE10num_writerEEclIRPcEEvOT_
00000000 l    d  .xt.lit._ZN3fmt2v68internal12basic_writerINS0_12buffer_rangeIcEEE12write_paddedINS5_17padded_int_writerINS5_10int_writerIiNS0_18basic_format_specsIcEEE10num_writerEEEEEvRKSA_OT_	00000000 .xt.lit._ZN3fmt2v68internal12basic_writerINS0_12buffer_rangeIcEEE12write_paddedINS5_17padded_int_writerINS5_10int_writerIiNS0_18basic_format_specsIcEEE10num_writerEEEEEvRKSA_OT_
00000000 l    d  .xt.lit._ZN3fmt2v68internal12basic_writerINS0_12buffer_rangeIcEEE10int_writerIiNS0_18basic_format_specsIcEEE6on_numEv	00000000 .xt.lit._ZN3fmt2v68internal12basic_writerINS0_12buffer_rangeIcEEE10int_writerIiNS0_18basic_format_specsIcEEE6on_numEv
00000000 l    d  .xt.lit._ZN3fmt2v68internal20handle_int_type_specINS1_12basic_writerINS0_12buffer_rangeIcEEE10int_writerIiNS0_18basic_format_specsIcEEEEEEvcOT_	00000000 .xt.lit._ZN3fmt2v68internal20handle_int_type_specINS1_12basic_writerINS0_12buffer_rangeIcEEE10int_writerIiNS0_18basic_format_specsIcEEEEEEvcOT_
00000000 l    d  .xt.lit._ZN3fmt2v68internal18arg_formatter_baseINS0_12buffer_rangeIcEENS1_13error_handlerEEclIiLi0EEESt20back_insert_iteratorINS1_6bufferIcEEET_	00000000 .xt.lit._ZN3fmt2v68internal18arg_formatter_baseINS0_12buffer_rangeIcEENS1_13error_handlerEEclIiLi0EEESt20back_insert_iteratorINS1_6bufferIcEEET_
00000000 l    d  .xt.lit._ZZNK3fmt2v68internal12basic_writerINS0_12buffer_rangeIcEEE10int_writerIjNS0_18basic_format_specsIcEEE10num_writerclIRPcEEvOT_ENKUlSD_E_clESD_	00000000 .xt.lit._ZZNK3fmt2v68internal12basic_writerINS0_12buffer_rangeIcEEE10int_writerIjNS0_18basic_format_specsIcEEE10num_writerclIRPcEEvOT_ENKUlSD_E_clESD_
00000000 l    d  .xt.lit._ZNK3fmt2v68internal12basic_writerINS0_12buffer_rangeIcEEE10int_writerIjNS0_18basic_format_specsIcEEE10num_writerclIRPcEEvOT_	00000000 .xt.lit._ZNK3fmt2v68internal12basic_writerINS0_12buffer_rangeIcEEE10int_writerIjNS0_18basic_format_specsIcEEE10num_writerclIRPcEEvOT_
00000000 l    d  .xt.lit._ZNK3fmt2v68internal12basic_writerINS0_12buffer_rangeIcEEE17padded_int_writerINS5_10int_writerIjNS0_18basic_format_specsIcEEE10num_writerEEclIRPcEEvOT_	00000000 .xt.lit._ZNK3fmt2v68internal12basic_writerINS0_12buffer_rangeIcEEE17padded_int_writerINS5_10int_writerIjNS0_18basic_format_specsIcEEE10num_writerEEclIRPcEEvOT_
00000000 l    d  .xt.lit._ZN3fmt2v68internal12basic_writerINS0_12buffer_rangeIcEEE12write_paddedINS5_17padded_int_writerINS5_10int_writerIjNS0_18basic_format_specsIcEEE10num_writerEEEEEvRKSA_OT_	00000000 .xt.lit._ZN3fmt2v68internal12basic_writerINS0_12buffer_rangeIcEEE12write_paddedINS5_17padded_int_writerINS5_10int_writerIjNS0_18basic_format_specsIcEEE10num_writerEEEEEvRKSA_OT_
00000000 l    d  .xt.lit._ZN3fmt2v68internal12basic_writerINS0_12buffer_rangeIcEEE10int_writerIjNS0_18basic_format_specsIcEEE6on_numEv	00000000 .xt.lit._ZN3fmt2v68internal12basic_writerINS0_12buffer_rangeIcEEE10int_writerIjNS0_18basic_format_specsIcEEE6on_numEv
00000000 l    d  .xt.lit._ZN3fmt2v68internal20handle_int_type_specINS1_12basic_writerINS0_12buffer_rangeIcEEE10int_writerIjNS0_18basic_format_specsIcEEEEEEvcOT_	00000000 .xt.lit._ZN3fmt2v68internal20handle_int_type_specINS1_12basic_writerINS0_12buffer_rangeIcEEE10int_writerIjNS0_18basic_format_specsIcEEEEEEvcOT_
00000000 l    d  .xt.lit._ZZNK3fmt2v68internal12basic_writerINS0_12buffer_rangeIcEEE10int_writerIxNS0_18basic_format_specsIcEEE10num_writerclIRPcEEvOT_ENKUlSD_E_clESD_	00000000 .xt.lit._ZZNK3fmt2v68internal12basic_writerINS0_12buffer_rangeIcEEE10int_writerIxNS0_18basic_format_specsIcEEE10num_writerclIRPcEEvOT_ENKUlSD_E_clESD_
00000000 l    d  .xt.lit._ZNK3fmt2v68internal12basic_writerINS0_12buffer_rangeIcEEE10int_writerIxNS0_18basic_format_specsIcEEE10num_writerclIRPcEEvOT_	00000000 .xt.lit._ZNK3fmt2v68internal12basic_writerINS0_12buffer_rangeIcEEE10int_writerIxNS0_18basic_format_specsIcEEE10num_writerclIRPcEEvOT_
00000000 l    d  .xt.lit._ZNK3fmt2v68internal12basic_writerINS0_12buffer_rangeIcEEE17padded_int_writerINS5_10int_writerIxNS0_18basic_format_specsIcEEE10num_writerEEclIRPcEEvOT_	00000000 .xt.lit._ZNK3fmt2v68internal12basic_writerINS0_12buffer_rangeIcEEE17padded_int_writerINS5_10int_writerIxNS0_18basic_format_specsIcEEE10num_writerEEclIRPcEEvOT_
00000000 l    d  .xt.lit._ZN3fmt2v68internal12basic_writerINS0_12buffer_rangeIcEEE12write_paddedINS5_17padded_int_writerINS5_10int_writerIxNS0_18basic_format_specsIcEEE10num_writerEEEEEvRKSA_OT_	00000000 .xt.lit._ZN3fmt2v68internal12basic_writerINS0_12buffer_rangeIcEEE12write_paddedINS5_17padded_int_writerINS5_10int_writerIxNS0_18basic_format_specsIcEEE10num_writerEEEEEvRKSA_OT_
00000000 l    d  .xt.lit._ZN3fmt2v68internal12basic_writerINS0_12buffer_rangeIcEEE10int_writerIxNS0_18basic_format_specsIcEEE6on_numEv	00000000 .xt.lit._ZN3fmt2v68internal12basic_writerINS0_12buffer_rangeIcEEE10int_writerIxNS0_18basic_format_specsIcEEE6on_numEv
00000000 l    d  .xt.lit._ZN3fmt2v68internal20handle_int_type_specINS1_12basic_writerINS0_12buffer_rangeIcEEE10int_writerIxNS0_18basic_format_specsIcEEEEEEvcOT_	00000000 .xt.lit._ZN3fmt2v68internal20handle_int_type_specINS1_12basic_writerINS0_12buffer_rangeIcEEE10int_writerIxNS0_18basic_format_specsIcEEEEEEvcOT_
00000000 l    d  .xt.lit._ZN3fmt2v68internal18arg_formatter_baseINS0_12buffer_rangeIcEENS1_13error_handlerEEclIxLi0EEESt20back_insert_iteratorINS1_6bufferIcEEET_	00000000 .xt.lit._ZN3fmt2v68internal18arg_formatter_baseINS0_12buffer_rangeIcEENS1_13error_handlerEEclIxLi0EEESt20back_insert_iteratorINS1_6bufferIcEEET_
00000000 l    d  .xt.lit._ZZNK3fmt2v68internal12basic_writerINS0_12buffer_rangeIcEEE10int_writerIyNS0_18basic_format_specsIcEEE10num_writerclIRPcEEvOT_ENKUlSD_E_clESD_	00000000 .xt.lit._ZZNK3fmt2v68internal12basic_writerINS0_12buffer_rangeIcEEE10int_writerIyNS0_18basic_format_specsIcEEE10num_writerclIRPcEEvOT_ENKUlSD_E_clESD_
00000000 l    d  .xt.lit._ZNK3fmt2v68internal12basic_writerINS0_12buffer_rangeIcEEE10int_writerIyNS0_18basic_format_specsIcEEE10num_writerclIRPcEEvOT_	00000000 .xt.lit._ZNK3fmt2v68internal12basic_writerINS0_12buffer_rangeIcEEE10int_writerIyNS0_18basic_format_specsIcEEE10num_writerclIRPcEEvOT_
00000000 l    d  .xt.lit._ZNK3fmt2v68internal12basic_writerINS0_12buffer_rangeIcEEE17padded_int_writerINS5_10int_writerIyNS0_18basic_format_specsIcEEE10num_writerEEclIRPcEEvOT_	00000000 .xt.lit._ZNK3fmt2v68internal12basic_writerINS0_12buffer_rangeIcEEE17padded_int_writerINS5_10int_writerIyNS0_18basic_format_specsIcEEE10num_writerEEclIRPcEEvOT_
00000000 l    d  .xt.lit._ZN3fmt2v68internal12basic_writerINS0_12buffer_rangeIcEEE12write_paddedINS5_17padded_int_writerINS5_10int_writerIyNS0_18basic_format_specsIcEEE10num_writerEEEEEvRKSA_OT_	00000000 .xt.lit._ZN3fmt2v68internal12basic_writerINS0_12buffer_rangeIcEEE12write_paddedINS5_17padded_int_writerINS5_10int_writerIyNS0_18basic_format_specsIcEEE10num_writerEEEEEvRKSA_OT_
00000000 l    d  .xt.lit._ZN3fmt2v68internal12basic_writerINS0_12buffer_rangeIcEEE10int_writerIyNS0_18basic_format_specsIcEEE6on_numEv	00000000 .xt.lit._ZN3fmt2v68internal12basic_writerINS0_12buffer_rangeIcEEE10int_writerIyNS0_18basic_format_specsIcEEE6on_numEv
00000000 l    d  .xt.lit._ZN3fmt2v68internal20handle_int_type_specINS1_12basic_writerINS0_12buffer_rangeIcEEE10int_writerIyNS0_18basic_format_specsIcEEEEEEvcOT_	00000000 .xt.lit._ZN3fmt2v68internal20handle_int_type_specINS1_12basic_writerINS0_12buffer_rangeIcEEE10int_writerIyNS0_18basic_format_specsIcEEEEEEvcOT_
00000000 l    d  .xt.lit._ZNK3fmt2v68internal12basic_writerINS0_12buffer_rangeIcEEE17padded_int_writerINS5_10int_writerIcNS0_18basic_format_specsIcEEE10dec_writerEEclIRPcEEvOT_	00000000 .xt.lit._ZNK3fmt2v68internal12basic_writerINS0_12buffer_rangeIcEEE17padded_int_writerINS5_10int_writerIcNS0_18basic_format_specsIcEEE10dec_writerEEclIRPcEEvOT_
00000000 l    d  .xt.lit._ZN3fmt2v68internal12basic_writerINS0_12buffer_rangeIcEEE12write_paddedINS5_17padded_int_writerINS5_10int_writerIcNS0_18basic_format_specsIcEEE10dec_writerEEEEEvRKSA_OT_	00000000 .xt.lit._ZN3fmt2v68internal12basic_writerINS0_12buffer_rangeIcEEE12write_paddedINS5_17padded_int_writerINS5_10int_writerIcNS0_18basic_format_specsIcEEE10dec_writerEEEEEvRKSA_OT_
00000000 l    d  .xt.lit._ZN3fmt2v68internal12basic_writerINS0_12buffer_rangeIcEEE10int_writerIcNS0_18basic_format_specsIcEEE6on_decEv	00000000 .xt.lit._ZN3fmt2v68internal12basic_writerINS0_12buffer_rangeIcEEE10int_writerIcNS0_18basic_format_specsIcEEE6on_decEv
00000000 l    d  .xt.lit._ZNK3fmt2v68internal12basic_writerINS0_12buffer_rangeIcEEE17padded_int_writerINS5_10int_writerIcNS0_18basic_format_specsIcEEE10hex_writerEEclIRPcEEvOT_	00000000 .xt.lit._ZNK3fmt2v68internal12basic_writerINS0_12buffer_rangeIcEEE17padded_int_writerINS5_10int_writerIcNS0_18basic_format_specsIcEEE10hex_writerEEclIRPcEEvOT_
00000000 l    d  .xt.lit._ZN3fmt2v68internal12basic_writerINS0_12buffer_rangeIcEEE12write_paddedINS5_17padded_int_writerINS5_10int_writerIcNS0_18basic_format_specsIcEEE10hex_writerEEEEEvRKSA_OT_	00000000 .xt.lit._ZN3fmt2v68internal12basic_writerINS0_12buffer_rangeIcEEE12write_paddedINS5_17padded_int_writerINS5_10int_writerIcNS0_18basic_format_specsIcEEE10hex_writerEEEEEvRKSA_OT_
00000000 l    d  .xt.lit._ZN3fmt2v68internal12basic_writerINS0_12buffer_rangeIcEEE10int_writerIcNS0_18basic_format_specsIcEEE6on_hexEv	00000000 .xt.lit._ZN3fmt2v68internal12basic_writerINS0_12buffer_rangeIcEEE10int_writerIcNS0_18basic_format_specsIcEEE6on_hexEv
00000000 l    d  .xt.lit._ZNK3fmt2v68internal12basic_writerINS0_12buffer_rangeIcEEE17padded_int_writerINS5_10int_writerIcNS0_18basic_format_specsIcEEE10bin_writerILi1EEEEclIRPcEEvOT_	00000000 .xt.lit._ZNK3fmt2v68internal12basic_writerINS0_12buffer_rangeIcEEE17padded_int_writerINS5_10int_writerIcNS0_18basic_format_specsIcEEE10bin_writerILi1EEEEclIRPcEEvOT_
00000000 l    d  .xt.lit._ZN3fmt2v68internal12basic_writerINS0_12buffer_rangeIcEEE12write_paddedINS5_17padded_int_writerINS5_10int_writerIcNS0_18basic_format_specsIcEEE10bin_writerILi1EEEEEEEvRKSA_OT_	00000000 .xt.lit._ZN3fmt2v68internal12basic_writerINS0_12buffer_rangeIcEEE12write_paddedINS5_17padded_int_writerINS5_10int_writerIcNS0_18basic_format_specsIcEEE10bin_writerILi1EEEEEEEvRKSA_OT_
00000000 l    d  .xt.lit._ZN3fmt2v68internal12basic_writerINS0_12buffer_rangeIcEEE10int_writerIcNS0_18basic_format_specsIcEEE6on_binEv	00000000 .xt.lit._ZN3fmt2v68internal12basic_writerINS0_12buffer_rangeIcEEE10int_writerIcNS0_18basic_format_specsIcEEE6on_binEv
00000000 l    d  .xt.lit._ZNK3fmt2v68internal12basic_writerINS0_12buffer_rangeIcEEE17padded_int_writerINS5_10int_writerIcNS0_18basic_format_specsIcEEE10bin_writerILi3EEEEclIRPcEEvOT_	00000000 .xt.lit._ZNK3fmt2v68internal12basic_writerINS0_12buffer_rangeIcEEE17padded_int_writerINS5_10int_writerIcNS0_18basic_format_specsIcEEE10bin_writerILi3EEEEclIRPcEEvOT_
00000000 l    d  .xt.lit._ZN3fmt2v68internal12basic_writerINS0_12buffer_rangeIcEEE12write_paddedINS5_17padded_int_writerINS5_10int_writerIcNS0_18basic_format_specsIcEEE10bin_writerILi3EEEEEEEvRKSA_OT_	00000000 .xt.lit._ZN3fmt2v68internal12basic_writerINS0_12buffer_rangeIcEEE12write_paddedINS5_17padded_int_writerINS5_10int_writerIcNS0_18basic_format_specsIcEEE10bin_writerILi3EEEEEEEvRKSA_OT_
00000000 l    d  .xt.lit._ZN3fmt2v68internal12basic_writerINS0_12buffer_rangeIcEEE10int_writerIcNS0_18basic_format_specsIcEEE6on_octEv	00000000 .xt.lit._ZN3fmt2v68internal12basic_writerINS0_12buffer_rangeIcEEE10int_writerIcNS0_18basic_format_specsIcEEE6on_octEv
00000000 l    d  .xt.lit._ZZNK3fmt2v68internal12basic_writerINS0_12buffer_rangeIcEEE10int_writerIcNS0_18basic_format_specsIcEEE10num_writerclIRPcEEvOT_ENKUlSD_E_clESD_	00000000 .xt.lit._ZZNK3fmt2v68internal12basic_writerINS0_12buffer_rangeIcEEE10int_writerIcNS0_18basic_format_specsIcEEE10num_writerclIRPcEEvOT_ENKUlSD_E_clESD_
00000000 l    d  .xt.lit._ZNK3fmt2v68internal12basic_writerINS0_12buffer_rangeIcEEE10int_writerIcNS0_18basic_format_specsIcEEE10num_writerclIRPcEEvOT_	00000000 .xt.lit._ZNK3fmt2v68internal12basic_writerINS0_12buffer_rangeIcEEE10int_writerIcNS0_18basic_format_specsIcEEE10num_writerclIRPcEEvOT_
00000000 l    d  .xt.lit._ZNK3fmt2v68internal12basic_writerINS0_12buffer_rangeIcEEE17padded_int_writerINS5_10int_writerIcNS0_18basic_format_specsIcEEE10num_writerEEclIRPcEEvOT_	00000000 .xt.lit._ZNK3fmt2v68internal12basic_writerINS0_12buffer_rangeIcEEE17padded_int_writerINS5_10int_writerIcNS0_18basic_format_specsIcEEE10num_writerEEclIRPcEEvOT_
00000000 l    d  .xt.lit._ZN3fmt2v68internal12basic_writerINS0_12buffer_rangeIcEEE12write_paddedINS5_17padded_int_writerINS5_10int_writerIcNS0_18basic_format_specsIcEEE10num_writerEEEEEvRKSA_OT_	00000000 .xt.lit._ZN3fmt2v68internal12basic_writerINS0_12buffer_rangeIcEEE12write_paddedINS5_17padded_int_writerINS5_10int_writerIcNS0_18basic_format_specsIcEEE10num_writerEEEEEvRKSA_OT_
00000000 l    d  .xt.lit._ZN3fmt2v68internal12basic_writerINS0_12buffer_rangeIcEEE10int_writerIcNS0_18basic_format_specsIcEEE6on_numEv	00000000 .xt.lit._ZN3fmt2v68internal12basic_writerINS0_12buffer_rangeIcEEE10int_writerIcNS0_18basic_format_specsIcEEE6on_numEv
00000000 l    d  .xt.lit._ZN3fmt2v68internal20handle_int_type_specINS1_12basic_writerINS0_12buffer_rangeIcEEE10int_writerIcNS0_18basic_format_specsIcEEEEEEvcOT_	00000000 .xt.lit._ZN3fmt2v68internal20handle_int_type_specINS1_12basic_writerINS0_12buffer_rangeIcEEE10int_writerIcNS0_18basic_format_specsIcEEEEEEvcOT_
00000000 l    d  .xt.lit._ZN3fmt2v68internal18arg_formatter_baseINS0_12buffer_rangeIcEENS1_13error_handlerEEclEc	00000000 .xt.lit._ZN3fmt2v68internal18arg_formatter_baseINS0_12buffer_rangeIcEENS1_13error_handlerEEclEc
00000000 l    d  .xt.lit._ZN3fmt2v616visit_format_argINS0_13arg_formatterINS0_12buffer_rangeIcEEEENS0_20basic_format_contextISt20back_insert_iteratorINS0_8internal6bufferIcEEEcEEEEDTclfp_Li0EEEOT_RKNS0_16basic_format_argIT0_EE	00000000 .xt.lit._ZN3fmt2v616visit_format_argINS0_13arg_formatterINS0_12buffer_rangeIcEEEENS0_20basic_format_contextISt20back_insert_iteratorINS0_8internal6bufferIcEEEcEEEEDTclfp_Li0EEEOT_RKNS0_16basic_format_argIT0_EE
00000000 l    d  .xt.lit._ZN3fmt2v614format_handlerINS0_13arg_formatterINS0_12buffer_rangeIcEEEEcNS0_20basic_format_contextISt20back_insert_iteratorINS0_8internal6bufferIcEEEcEEE20on_replacement_fieldEPKc	00000000 .xt.lit._ZN3fmt2v614format_handlerINS0_13arg_formatterINS0_12buffer_rangeIcEEEEcNS0_20basic_format_contextISt20back_insert_iteratorINS0_8internal6bufferIcEEEcEEE20on_replacement_fieldEPKc
00000000 l    d  .xt.lit._ZN3fmt2v68internal19parse_format_stringILb0EcRNS0_14format_handlerINS0_13arg_formatterINS0_12buffer_rangeIcEEEEcNS0_20basic_format_contextISt20back_insert_iteratorINS1_6bufferIcEEEcEEEEEEvNS0_17basic_string_viewIT0_EEOT1_	00000000 .xt.lit._ZN3fmt2v68internal19parse_format_stringILb0EcRNS0_14format_handlerINS0_13arg_formatterINS0_12buffer_rangeIcEEEEcNS0_20basic_format_contextISt20back_insert_iteratorINS1_6bufferIcEEEcEEEEEEvNS0_17basic_string_viewIT0_EEOT1_
00000000 l    d  .xt.lit._ZN3fmt2v610vformat_toINS0_13arg_formatterINS0_12buffer_rangeIcEEEEcNS0_20basic_format_contextISt20back_insert_iteratorINS0_8internal6bufferIcEEEcEEEENT1_8iteratorENT_5rangeENS0_17basic_string_viewIT0_EENS0_17basic_format_argsISD_EENS8_10locale_refE	00000000 .xt.lit._ZN3fmt2v610vformat_toINS0_13arg_formatterINS0_12buffer_rangeIcEEEEcNS0_20basic_format_contextISt20back_insert_iteratorINS0_8internal6bufferIcEEEcEEEENT1_8iteratorENT_5rangeENS0_17basic_string_viewIT0_EENS0_17basic_format_argsISD_EENS8_10locale_refE
00000000 l    d  .xt.lit._ZN3fmt2v69format_toIA29_cJRhELj500EcEENS0_14buffer_contextIT2_E8iteratorERNS0_19basic_memory_bufferIS5_XT1_ESaIS5_EEERKT_DpOT0_	00000000 .xt.lit._ZN3fmt2v69format_toIA29_cJRhELj500EcEENS0_14buffer_contextIT2_E8iteratorERNS0_19basic_memory_bufferIS5_XT1_ESaIS5_EEERKT_DpOT0_
00000000 l    d  .xt.lit._ZN7Printer7processEPv	00000000 .xt.lit._ZN7Printer7processEPv
00000000 l    d  .xt.prop	00000000 .xt.prop
00000000 l    d  .xt.prop._ZN3fmt2v619basic_memory_bufferIcLj500ESaIcEED5Ev	00000000 .xt.prop._ZN3fmt2v619basic_memory_bufferIcLj500ESaIcEED5Ev
00000000 l    d  .xt.prop._ZN3fmt2v68internal16is_integral_typeENS1_4typeE	00000000 .xt.prop._ZN3fmt2v68internal16is_integral_typeENS1_4typeE
00000000 l    d  .xt.prop._ZN3fmt2v68internal12count_digitsEy	00000000 .xt.prop._ZN3fmt2v68internal12count_digitsEy
00000000 l    d  .xt.prop._ZN3fmt2v68internal12count_digitsEj	00000000 .xt.prop._ZN3fmt2v68internal12count_digitsEj
00000000 l    d  .xt.prop._ZN7Printer5beginEjjj	00000000 .xt.prop._ZN7Printer5beginEjjj
00000000 l    d  .xt.prop._ZN3Pin7setHighEv	00000000 .xt.prop._ZN3Pin7setHighEv
00000000 l    d  .xt.prop._ZN7OneWire11becomeSlaveEv	00000000 .xt.prop._ZN7OneWire11becomeSlaveEv
00000000 l    d  .xt.prop._ZN3fmt2v68internal11to_unsignedIiEENSt13make_unsignedIT_E4typeES4_	00000000 .xt.prop._ZN3fmt2v68internal11to_unsignedIiEENSt13make_unsignedIT_E4typeES4_
00000000 l    d  .xt.prop._ZN3fmt2v618basic_format_specsIcEC5Ev	00000000 .xt.prop._ZN3fmt2v618basic_format_specsIcEC5Ev
00000000 l    d  .xt.prop._ZN3fmt2v626basic_format_parse_contextIcNS0_8internal13error_handlerEE10advance_toEPKc	00000000 .xt.prop._ZN3fmt2v626basic_format_parse_contextIcNS0_8internal13error_handlerEE10advance_toEPKc
00000000 l    d  .xt.prop._ZN3fmt2v68internal11parse_alignIcRNS1_13specs_checkerINS1_13specs_handlerINS0_26basic_format_parse_contextIcNS1_13error_handlerEEENS0_20basic_format_contextISt20back_insert_iteratorINS1_6bufferIcEEEcEEEEEEEEPKT_SJ_SJ_OT0_	00000000 .xt.prop._ZN3fmt2v68internal11parse_alignIcRNS1_13specs_checkerINS1_13specs_handlerINS0_26basic_format_parse_contextIcNS1_13error_handlerEEENS0_20basic_format_contextISt20back_insert_iteratorINS1_6bufferIcEEEcEEEEEEEEPKT_SJ_SJ_OT0_
00000000 l    d  .xt.prop._ZN3fmt2v68internal7reserveINS1_6bufferIcEELi0EEEPNT_10value_typeERSt20back_insert_iteratorIS5_Ej	00000000 .xt.prop._ZN3fmt2v68internal7reserveINS1_6bufferIcEELi0EEEPNT_10value_typeERSt20back_insert_iteratorIS5_Ej
00000000 l    d  .xt.prop._ZN3fmt2v68internal21numeric_specs_checkerINS1_13specs_handlerINS0_26basic_format_parse_contextIcNS1_13error_handlerEEENS0_20basic_format_contextISt20back_insert_iteratorINS1_6bufferIcEEEcEEEEE10check_signEv	00000000 .xt.prop._ZN3fmt2v68internal21numeric_specs_checkerINS1_13specs_handlerINS0_26basic_format_parse_contextIcNS1_13error_handlerEEENS0_20basic_format_contextISt20back_insert_iteratorINS1_6bufferIcEEEcEEEEE10check_signEv
00000000 l    d  .xt.prop._ZN3fmt2v68internal21parse_float_type_specINS1_13error_handlerEcEENS1_11float_specsERKNS0_18basic_format_specsIT0_EEOT_	00000000 .xt.prop._ZN3fmt2v68internal21parse_float_type_specINS1_13error_handlerEcEENS1_11float_specsERKNS0_18basic_format_specsIT0_EEOT_
00000000 l    d  .xt.prop._ZN3fmt2v68internal6bufferIcE9push_backERKc	00000000 .xt.prop._ZN3fmt2v68internal6bufferIcE9push_backERKc
00000000 l    d  .xt.prop._ZN3fmt2v68internal21parse_nonnegative_intIcRNS1_17precision_adapterIRNS1_13specs_checkerINS1_13specs_handlerINS0_26basic_format_parse_contextIcNS1_13error_handlerEEENS0_20basic_format_contextISt20back_insert_iteratorINS1_6bufferIcEEEcEEEEEEcEEEEiRPKT_SM_OT0_	00000000 .xt.prop._ZN3fmt2v68internal21parse_nonnegative_intIcRNS1_17precision_adapterIRNS1_13specs_checkerINS1_13specs_handlerINS0_26basic_format_parse_contextIcNS1_13error_handlerEEENS0_20basic_format_contextISt20back_insert_iteratorINS1_6bufferIcEEEcEEEEEEcEEEEiRPKT_SM_OT0_
00000000 l    d  .xt.prop._ZNK3fmt2v617basic_format_argsINS0_20basic_format_contextISt20back_insert_iteratorINS0_8internal6bufferIcEEEcEEE6do_getEi	00000000 .xt.prop._ZNK3fmt2v617basic_format_argsINS0_20basic_format_contextISt20back_insert_iteratorINS0_8internal6bufferIcEEEcEEE6do_getEi
00000000 l    d  .xt.prop._ZNK3fmt2v68internal14named_arg_baseIcE11deserializeINS0_20basic_format_contextISt20back_insert_iteratorINS1_6bufferIcEEEcEEEENS0_16basic_format_argIT_EEv	00000000 .xt.prop._ZNK3fmt2v68internal14named_arg_baseIcE11deserializeINS0_20basic_format_contextISt20back_insert_iteratorINS1_6bufferIcEEEcEEEENS0_16basic_format_argIT_EEv
00000000 l    d  .xt.prop._ZN3fmt2v68internal7get_argINS0_20basic_format_contextISt20back_insert_iteratorINS1_6bufferIcEEEcEEEENT_10format_argERS9_i	00000000 .xt.prop._ZN3fmt2v68internal7get_argINS0_20basic_format_contextISt20back_insert_iteratorINS1_6bufferIcEEEcEEEENT_10format_argERS9_i
00000000 l    d  .xt.prop._ZN3fmt2v614format_handlerINS0_13arg_formatterINS0_12buffer_rangeIcEEEEcNS0_20basic_format_contextISt20back_insert_iteratorINS0_8internal6bufferIcEEEcEEE7get_argEi	00000000 .xt.prop._ZN3fmt2v614format_handlerINS0_13arg_formatterINS0_12buffer_rangeIcEEEEcNS0_20basic_format_contextISt20back_insert_iteratorINS0_8internal6bufferIcEEEcEEE7get_argEi
00000000 l    d  .xt.prop._ZN3fmt2v614format_handlerINS0_13arg_formatterINS0_12buffer_rangeIcEEEEcNS0_20basic_format_contextISt20back_insert_iteratorINS0_8internal6bufferIcEEEcEEE9on_arg_idEv	00000000 .xt.prop._ZN3fmt2v614format_handlerINS0_13arg_formatterINS0_12buffer_rangeIcEEEEcNS0_20basic_format_contextISt20back_insert_iteratorINS0_8internal6bufferIcEEEcEEE9on_arg_idEv
00000000 l    d  .xt.prop._ZN3fmt2v68internal7arg_mapINS0_20basic_format_contextISt20back_insert_iteratorINS1_6bufferIcEEEcEEE4initERKNS0_17basic_format_argsIS8_EE	00000000 .xt.prop._ZN3fmt2v68internal7arg_mapINS0_20basic_format_contextISt20back_insert_iteratorINS1_6bufferIcEEEcEEE4initERKNS0_17basic_format_argsIS8_EE
00000000 l    d  .xt.prop._ZN3fmt2v620basic_format_contextISt20back_insert_iteratorINS0_8internal6bufferIcEEEcE3argENS0_17basic_string_viewIcEE	00000000 .xt.prop._ZN3fmt2v620basic_format_contextISt20back_insert_iteratorINS0_8internal6bufferIcEEEcE3argENS0_17basic_string_viewIcEE
00000000 l    d  .xt.prop._ZN3fmt2v68internal12parse_arg_idIcNS1_10id_adapterIRNS0_14format_handlerINS0_13arg_formatterINS0_12buffer_rangeIcEEEEcNS0_20basic_format_contextISt20back_insert_iteratorINS1_6bufferIcEEEcEEEEcEEEEPKT_SK_SK_OT0_	00000000 .xt.prop._ZN3fmt2v68internal12parse_arg_idIcNS1_10id_adapterIRNS0_14format_handlerINS0_13arg_formatterINS0_12buffer_rangeIcEEEEcNS0_20basic_format_contextISt20back_insert_iteratorINS1_6bufferIcEEEcEEEEcEEEEPKT_SK_SK_OT0_
00000000 l    d  .xt.prop._ZNSt11__copy_moveILb0ELb1ESt26random_access_iterator_tagE8__copy_mIcEEPT_PKS3_S6_S4_	00000000 .xt.prop._ZNSt11__copy_moveILb0ELb1ESt26random_access_iterator_tagE8__copy_mIcEEPT_PKS3_S6_S4_
00000000 l    d  .xt.prop._ZN3fmt2v614format_handlerINS0_13arg_formatterINS0_12buffer_rangeIcEEEEcNS0_20basic_format_contextISt20back_insert_iteratorINS0_8internal6bufferIcEEEcEEE7on_textEPKcSF_	00000000 .xt.prop._ZN3fmt2v614format_handlerINS0_13arg_formatterINS0_12buffer_rangeIcEEEEcNS0_20basic_format_contextISt20back_insert_iteratorINS0_8internal6bufferIcEEEcEEE7on_textEPKcSF_
00000000 l    d  .xt.prop._ZZN3fmt2v68internal19parse_format_stringILb0EcRNS0_14format_handlerINS0_13arg_formatterINS0_12buffer_rangeIcEEEEcNS0_20basic_format_contextISt20back_insert_iteratorINS1_6bufferIcEEEcEEEEEEvNS0_17basic_string_viewIT0_EEOT1_EN10pfs_writerclEPKcSN_	00000000 .xt.prop._ZZN3fmt2v68internal19parse_format_stringILb0EcRNS0_14format_handlerINS0_13arg_formatterINS0_12buffer_rangeIcEEEEcNS0_20basic_format_contextISt20back_insert_iteratorINS1_6bufferIcEEEcEEEEEEvNS0_17basic_string_viewIT0_EEOT1_EN10pfs_writerclEPKcSN_
00000000 l    d  .xt.prop._ZNK3fmt2v68internal12basic_writerINS0_12buffer_rangeIcEEE10str_writerIcEclIRPcEEvOT_	00000000 .xt.prop._ZNK3fmt2v68internal12basic_writerINS0_12buffer_rangeIcEEE10str_writerIcEclIRPcEEvOT_
00000000 l    d  .xt.prop._ZN3fmt2v68internal12basic_writerINS0_12buffer_rangeIcEEE5writeENS0_17basic_string_viewIcEE	00000000 .xt.prop._ZN3fmt2v68internal12basic_writerINS0_12buffer_rangeIcEEE5writeENS0_17basic_string_viewIcEE
00000000 l    d  .xt.prop._ZNK3fmt2v68internal16nonfinite_writerIcEclIRPcEEvOT_	00000000 .xt.prop._ZNK3fmt2v68internal16nonfinite_writerIcEclIRPcEEvOT_
00000000 l    d  .xt.prop._ZN3fmt2v68internal4fillIPccEET_S4_jRKNS1_6fill_tIT0_EE	00000000 .xt.prop._ZN3fmt2v68internal4fillIPccEET_S4_jRKNS1_6fill_tIT0_EE
00000000 l    d  .xt.prop._ZN3fmt2v68internal12basic_writerINS0_12buffer_rangeIcEEE12write_paddedINS5_10str_writerIcEEEEvRKNS0_18basic_format_specsIcEEOT_	00000000 .xt.prop._ZN3fmt2v68internal12basic_writerINS0_12buffer_rangeIcEEE12write_paddedINS5_10str_writerIcEEEEvRKNS0_18basic_format_specsIcEEOT_
00000000 l    d  .xt.prop._ZN3fmt2v68internal12basic_writerINS0_12buffer_rangeIcEEE5writeIcEEvNS0_17basic_string_viewIT_EERKNS0_18basic_format_specsIcEE	00000000 .xt.prop._ZN3fmt2v68internal12basic_writerINS0_12buffer_rangeIcEEE5writeIcEEvNS0_17basic_string_viewIT_EERKNS0_18basic_format_specsIcEE
00000000 l    d  .xt.prop._ZN3fmt2v68internal18arg_formatter_baseINS0_12buffer_rangeIcEENS1_13error_handlerEE5writeEPKc	00000000 .xt.prop._ZN3fmt2v68internal18arg_formatter_baseINS0_12buffer_rangeIcEENS1_13error_handlerEE5writeEPKc
00000000 l    d  .xt.prop._ZN3fmt2v68internal12basic_writerINS0_12buffer_rangeIcEEE12write_paddedINS1_16nonfinite_writerIcEEEEvRKNS0_18basic_format_specsIcEEOT_	00000000 .xt.prop._ZN3fmt2v68internal12basic_writerINS0_12buffer_rangeIcEEE12write_paddedINS1_16nonfinite_writerIcEEEEvRKNS0_18basic_format_specsIcEEOT_
00000000 l    d  .xt.prop._ZN3fmt2v619basic_memory_bufferIcLj500ESaIcEE4growEj	00000000 .xt.prop._ZN3fmt2v619basic_memory_bufferIcLj500ESaIcEE4growEj
00000000 l    d  .xt.prop._ZN3fmt2v68internal12basic_writerINS0_12buffer_rangeIcEEE12write_paddedINS1_18arg_formatter_baseIS4_NS1_13error_handlerEE11char_writerEEEvRKNS0_18basic_format_specsIcEEOT_	00000000 .xt.prop._ZN3fmt2v68internal12basic_writerINS0_12buffer_rangeIcEEE12write_paddedINS1_18arg_formatter_baseIS4_NS1_13error_handlerEE11char_writerEEEvRKNS0_18basic_format_specsIcEEOT_
00000000 l    d  .xt.prop._ZN3fmt2v68internal18arg_formatter_baseINS0_12buffer_rangeIcEENS1_13error_handlerEE10write_charEc	00000000 .xt.prop._ZN3fmt2v68internal18arg_formatter_baseINS0_12buffer_rangeIcEENS1_13error_handlerEE10write_charEc
00000000 l    d  .xt.prop._ZNK3fmt2v68internal12float_writerIcE8prettifyINS1_17counting_iteratorEEET_S6_	00000000 .xt.prop._ZNK3fmt2v68internal12float_writerIcE8prettifyINS1_17counting_iteratorEEET_S6_
00000000 l    d  .xt.prop._ZN3fmt2v68internal12float_writerIcEC5EPKciiNS1_11float_specsEc	00000000 .xt.prop._ZN3fmt2v68internal12float_writerIcEC5EPKciiNS1_11float_specsEc
00000000 l    d  .xt.prop._ZNK3fmt2v68internal12float_writerIcE8prettifyIPcEET_S6_	00000000 .xt.prop._ZNK3fmt2v68internal12float_writerIcE8prettifyIPcEET_S6_
00000000 l    d  .xt.prop._ZN3fmt2v68internal12float_writerIcEclIRPcEEvOT_	00000000 .xt.prop._ZN3fmt2v68internal12float_writerIcEclIRPcEEvOT_
00000000 l    d  .xt.prop._ZN3fmt2v68internal12basic_writerINS0_12buffer_rangeIcEEE12write_paddedINS1_12float_writerIcEEEEvRKNS0_18basic_format_specsIcEEOT_	00000000 .xt.prop._ZN3fmt2v68internal12basic_writerINS0_12buffer_rangeIcEEE12write_paddedINS1_12float_writerIcEEEEvRKNS0_18basic_format_specsIcEEOT_
00000000 l    d  .xt.prop._ZN3fmt2v68internal12basic_writerINS0_12buffer_rangeIcEEE5writeIfLi0EEEvT_NS0_18basic_format_specsIcEE	00000000 .xt.prop._ZN3fmt2v68internal12basic_writerINS0_12buffer_rangeIcEEE5writeIfLi0EEEvT_NS0_18basic_format_specsIcEE
00000000 l    d  .xt.prop._ZN3fmt2v68internal12basic_writerINS0_12buffer_rangeIcEEE5writeIdLi0EEEvT_NS0_18basic_format_specsIcEE	00000000 .xt.prop._ZN3fmt2v68internal12basic_writerINS0_12buffer_rangeIcEEE5writeIdLi0EEEvT_NS0_18basic_format_specsIcEE
00000000 l    d  .xt.prop._ZN3fmt2v68internal12basic_writerINS0_12buffer_rangeIcEEE5writeIeLi0EEEvT_NS0_18basic_format_specsIcEE	00000000 .xt.prop._ZN3fmt2v68internal12basic_writerINS0_12buffer_rangeIcEEE5writeIeLi0EEEvT_NS0_18basic_format_specsIcEE
00000000 l    d  .xt.prop._ZN3fmt2v68internal11format_uintILj4EcjEEPT0_S4_T1_ib	00000000 .xt.prop._ZN3fmt2v68internal11format_uintILj4EcjEEPT0_S4_T1_ib
00000000 l    d  .xt.prop._ZNK3fmt2v68internal12basic_writerINS0_12buffer_rangeIcEEE14pointer_writerIjEclIRPcEEvOT_	00000000 .xt.prop._ZNK3fmt2v68internal12basic_writerINS0_12buffer_rangeIcEEE14pointer_writerIjEclIRPcEEvOT_
00000000 l    d  .xt.prop._ZN3fmt2v68internal12basic_writerINS0_12buffer_rangeIcEEE12write_paddedIRNS5_14pointer_writerIjEEEEvRKNS0_18basic_format_specsIcEEOT_	00000000 .xt.prop._ZN3fmt2v68internal12basic_writerINS0_12buffer_rangeIcEEE12write_paddedIRNS5_14pointer_writerIjEEEEvRKNS0_18basic_format_specsIcEEOT_
00000000 l    d  .xt.prop._ZN3fmt2v68internal12basic_writerINS0_12buffer_rangeIcEEE13write_pointerIjEEvT_PKNS0_18basic_format_specsIcEE	00000000 .xt.prop._ZN3fmt2v68internal12basic_writerINS0_12buffer_rangeIcEEE13write_pointerIjEEvT_PKNS0_18basic_format_specsIcEE
00000000 l    d  .xt.prop._ZN3fmt2v68internal18arg_formatter_baseINS0_12buffer_rangeIcEENS1_13error_handlerEE13write_pointerEPKv	00000000 .xt.prop._ZN3fmt2v68internal18arg_formatter_baseINS0_12buffer_rangeIcEENS1_13error_handlerEE13write_pointerEPKv
00000000 l    d  .xt.prop._ZN3fmt2v616visit_format_argINS0_8internal13width_checkerINS2_13error_handlerEEENS0_20basic_format_contextISt20back_insert_iteratorINS2_6bufferIcEEEcEEEEDTclfp_Li0EEEOT_RKNS0_16basic_format_argIT0_EE	00000000 .xt.prop._ZN3fmt2v616visit_format_argINS0_8internal13width_checkerINS2_13error_handlerEEENS0_20basic_format_contextISt20back_insert_iteratorINS2_6bufferIcEEEcEEEEDTclfp_Li0EEEOT_RKNS0_16basic_format_argIT0_EE
00000000 l    d  .xt.prop._ZN3fmt2v68internal16get_dynamic_specINS1_13width_checkerENS0_16basic_format_argINS0_20basic_format_contextISt20back_insert_iteratorINS1_6bufferIcEEEcEEEENS1_13error_handlerEEEiT0_T1_	00000000 .xt.prop._ZN3fmt2v68internal16get_dynamic_specINS1_13width_checkerENS0_16basic_format_argINS0_20basic_format_contextISt20back_insert_iteratorINS1_6bufferIcEEEcEEEENS1_13error_handlerEEEiT0_T1_
00000000 l    d  .xt.prop._ZN3fmt2v68internal12parse_arg_idIcNS1_13width_adapterIRNS1_13specs_checkerINS1_13specs_handlerINS0_26basic_format_parse_contextIcNS1_13error_handlerEEENS0_20basic_format_contextISt20back_insert_iteratorINS1_6bufferIcEEEcEEEEEEcEEEEPKT_SL_SL_OT0_	00000000 .xt.prop._ZN3fmt2v68internal12parse_arg_idIcNS1_13width_adapterIRNS1_13specs_checkerINS1_13specs_handlerINS0_26basic_format_parse_contextIcNS1_13error_handlerEEENS0_20basic_format_contextISt20back_insert_iteratorINS1_6bufferIcEEEcEEEEEEcEEEEPKT_SL_SL_OT0_
00000000 l    d  .xt.prop._ZN3fmt2v616visit_format_argINS0_8internal17precision_checkerINS2_13error_handlerEEENS0_20basic_format_contextISt20back_insert_iteratorINS2_6bufferIcEEEcEEEEDTclfp_Li0EEEOT_RKNS0_16basic_format_argIT0_EE	00000000 .xt.prop._ZN3fmt2v616visit_format_argINS0_8internal17precision_checkerINS2_13error_handlerEEENS0_20basic_format_contextISt20back_insert_iteratorINS2_6bufferIcEEEcEEEEDTclfp_Li0EEEOT_RKNS0_16basic_format_argIT0_EE
00000000 l    d  .xt.prop._ZN3fmt2v68internal16get_dynamic_specINS1_17precision_checkerENS0_16basic_format_argINS0_20basic_format_contextISt20back_insert_iteratorINS1_6bufferIcEEEcEEEENS1_13error_handlerEEEiT0_T1_	00000000 .xt.prop._ZN3fmt2v68internal16get_dynamic_specINS1_17precision_checkerENS0_16basic_format_argINS0_20basic_format_contextISt20back_insert_iteratorINS1_6bufferIcEEEcEEEENS1_13error_handlerEEEiT0_T1_
00000000 l    d  .xt.prop._ZN3fmt2v68internal12parse_arg_idIcNS1_17precision_adapterIRNS1_13specs_checkerINS1_13specs_handlerINS0_26basic_format_parse_contextIcNS1_13error_handlerEEENS0_20basic_format_contextISt20back_insert_iteratorINS1_6bufferIcEEEcEEEEEEcEEEEPKT_SL_SL_OT0_	00000000 .xt.prop._ZN3fmt2v68internal12parse_arg_idIcNS1_17precision_adapterIRNS1_13specs_checkerINS1_13specs_handlerINS0_26basic_format_parse_contextIcNS1_13error_handlerEEENS0_20basic_format_contextISt20back_insert_iteratorINS1_6bufferIcEEEcEEEEEEcEEEEPKT_SL_SL_OT0_
00000000 l    d  .xt.prop._ZN3fmt2v68internal15parse_precisionIcRNS1_13specs_checkerINS1_13specs_handlerINS0_26basic_format_parse_contextIcNS1_13error_handlerEEENS0_20basic_format_contextISt20back_insert_iteratorINS1_6bufferIcEEEcEEEEEEEEPKT_SJ_SJ_OT0_	00000000 .xt.prop._ZN3fmt2v68internal15parse_precisionIcRNS1_13specs_checkerINS1_13specs_handlerINS0_26basic_format_parse_contextIcNS1_13error_handlerEEENS0_20basic_format_contextISt20back_insert_iteratorINS1_6bufferIcEEEcEEEEEEEEPKT_SJ_SJ_OT0_
00000000 l    d  .xt.prop._ZN3fmt2v68internal18parse_format_specsIcRNS1_13specs_checkerINS1_13specs_handlerINS0_26basic_format_parse_contextIcNS1_13error_handlerEEENS0_20basic_format_contextISt20back_insert_iteratorINS1_6bufferIcEEEcEEEEEEEEPKT_SJ_SJ_OT0_	00000000 .xt.prop._ZN3fmt2v68internal18parse_format_specsIcRNS1_13specs_checkerINS1_13specs_handlerINS0_26basic_format_parse_contextIcNS1_13error_handlerEEENS0_20basic_format_contextISt20back_insert_iteratorINS1_6bufferIcEEEcEEEEEEEEPKT_SJ_SJ_OT0_
00000000 l    d  .xt.prop._ZNK3fmt2v68internal12basic_writerINS0_12buffer_rangeIcEEE17padded_int_writerINS5_10int_writerIiNS0_18basic_format_specsIcEEE10dec_writerEEclIRPcEEvOT_	00000000 .xt.prop._ZNK3fmt2v68internal12basic_writerINS0_12buffer_rangeIcEEE17padded_int_writerINS5_10int_writerIiNS0_18basic_format_specsIcEEE10dec_writerEEclIRPcEEvOT_
00000000 l    d  .xt.prop._ZN3fmt2v68internal12basic_writerINS0_12buffer_rangeIcEEE12write_paddedINS5_17padded_int_writerINS5_10int_writerIiNS0_18basic_format_specsIcEEE10dec_writerEEEEEvRKSA_OT_	00000000 .xt.prop._ZN3fmt2v68internal12basic_writerINS0_12buffer_rangeIcEEE12write_paddedINS5_17padded_int_writerINS5_10int_writerIiNS0_18basic_format_specsIcEEE10dec_writerEEEEEvRKSA_OT_
00000000 l    d  .xt.prop._ZN3fmt2v68internal12basic_writerINS0_12buffer_rangeIcEEE10int_writerIiNS0_18basic_format_specsIcEEE6on_decEv	00000000 .xt.prop._ZN3fmt2v68internal12basic_writerINS0_12buffer_rangeIcEEE10int_writerIiNS0_18basic_format_specsIcEEE6on_decEv
00000000 l    d  .xt.prop._ZNK3fmt2v68internal12basic_writerINS0_12buffer_rangeIcEEE17padded_int_writerINS5_10int_writerIiNS0_18basic_format_specsIcEEE10hex_writerEEclIRPcEEvOT_	00000000 .xt.prop._ZNK3fmt2v68internal12basic_writerINS0_12buffer_rangeIcEEE17padded_int_writerINS5_10int_writerIiNS0_18basic_format_specsIcEEE10hex_writerEEclIRPcEEvOT_
00000000 l    d  .xt.prop._ZN3fmt2v68internal12basic_writerINS0_12buffer_rangeIcEEE12write_paddedINS5_17padded_int_writerINS5_10int_writerIiNS0_18basic_format_specsIcEEE10hex_writerEEEEEvRKSA_OT_	00000000 .xt.prop._ZN3fmt2v68internal12basic_writerINS0_12buffer_rangeIcEEE12write_paddedINS5_17padded_int_writerINS5_10int_writerIiNS0_18basic_format_specsIcEEE10hex_writerEEEEEvRKSA_OT_
00000000 l    d  .xt.prop._ZN3fmt2v68internal12basic_writerINS0_12buffer_rangeIcEEE10int_writerIiNS0_18basic_format_specsIcEEE6on_hexEv	00000000 .xt.prop._ZN3fmt2v68internal12basic_writerINS0_12buffer_rangeIcEEE10int_writerIiNS0_18basic_format_specsIcEEE6on_hexEv
00000000 l    d  .xt.prop._ZNK3fmt2v68internal12basic_writerINS0_12buffer_rangeIcEEE17padded_int_writerINS5_10int_writerIiNS0_18basic_format_specsIcEEE10bin_writerILi1EEEEclIRPcEEvOT_	00000000 .xt.prop._ZNK3fmt2v68internal12basic_writerINS0_12buffer_rangeIcEEE17padded_int_writerINS5_10int_writerIiNS0_18basic_format_specsIcEEE10bin_writerILi1EEEEclIRPcEEvOT_
00000000 l    d  .xt.prop._ZN3fmt2v68internal12basic_writerINS0_12buffer_rangeIcEEE12write_paddedINS5_17padded_int_writerINS5_10int_writerIiNS0_18basic_format_specsIcEEE10bin_writerILi1EEEEEEEvRKSA_OT_	00000000 .xt.prop._ZN3fmt2v68internal12basic_writerINS0_12buffer_rangeIcEEE12write_paddedINS5_17padded_int_writerINS5_10int_writerIiNS0_18basic_format_specsIcEEE10bin_writerILi1EEEEEEEvRKSA_OT_
00000000 l    d  .xt.prop._ZN3fmt2v68internal12basic_writerINS0_12buffer_rangeIcEEE10int_writerIiNS0_18basic_format_specsIcEEE6on_binEv	00000000 .xt.prop._ZN3fmt2v68internal12basic_writerINS0_12buffer_rangeIcEEE10int_writerIiNS0_18basic_format_specsIcEEE6on_binEv
00000000 l    d  .xt.prop._ZNK3fmt2v68internal12basic_writerINS0_12buffer_rangeIcEEE17padded_int_writerINS5_10int_writerIiNS0_18basic_format_specsIcEEE10bin_writerILi3EEEEclIRPcEEvOT_	00000000 .xt.prop._ZNK3fmt2v68internal12basic_writerINS0_12buffer_rangeIcEEE17padded_int_writerINS5_10int_writerIiNS0_18basic_format_specsIcEEE10bin_writerILi3EEEEclIRPcEEvOT_
00000000 l    d  .xt.prop._ZN3fmt2v68internal12basic_writerINS0_12buffer_rangeIcEEE12write_paddedINS5_17padded_int_writerINS5_10int_writerIiNS0_18basic_format_specsIcEEE10bin_writerILi3EEEEEEEvRKSA_OT_	00000000 .xt.prop._ZN3fmt2v68internal12basic_writerINS0_12buffer_rangeIcEEE12write_paddedINS5_17padded_int_writerINS5_10int_writerIiNS0_18basic_format_specsIcEEE10bin_writerILi3EEEEEEEvRKSA_OT_
00000000 l    d  .xt.prop._ZN3fmt2v68internal12basic_writerINS0_12buffer_rangeIcEEE10int_writerIiNS0_18basic_format_specsIcEEE6on_octEv	00000000 .xt.prop._ZN3fmt2v68internal12basic_writerINS0_12buffer_rangeIcEEE10int_writerIiNS0_18basic_format_specsIcEEE6on_octEv
00000000 l    d  .xt.prop._ZNK3fmt2v68internal12basic_writerINS0_12buffer_rangeIcEEE17padded_int_writerINS5_10int_writerIjNS0_18basic_format_specsIcEEE10dec_writerEEclIRPcEEvOT_	00000000 .xt.prop._ZNK3fmt2v68internal12basic_writerINS0_12buffer_rangeIcEEE17padded_int_writerINS5_10int_writerIjNS0_18basic_format_specsIcEEE10dec_writerEEclIRPcEEvOT_
00000000 l    d  .xt.prop._ZN3fmt2v68internal12basic_writerINS0_12buffer_rangeIcEEE12write_paddedINS5_17padded_int_writerINS5_10int_writerIjNS0_18basic_format_specsIcEEE10dec_writerEEEEEvRKSA_OT_	00000000 .xt.prop._ZN3fmt2v68internal12basic_writerINS0_12buffer_rangeIcEEE12write_paddedINS5_17padded_int_writerINS5_10int_writerIjNS0_18basic_format_specsIcEEE10dec_writerEEEEEvRKSA_OT_
00000000 l    d  .xt.prop._ZN3fmt2v68internal12basic_writerINS0_12buffer_rangeIcEEE10int_writerIjNS0_18basic_format_specsIcEEE6on_decEv	00000000 .xt.prop._ZN3fmt2v68internal12basic_writerINS0_12buffer_rangeIcEEE10int_writerIjNS0_18basic_format_specsIcEEE6on_decEv
00000000 l    d  .xt.prop._ZNK3fmt2v68internal12basic_writerINS0_12buffer_rangeIcEEE17padded_int_writerINS5_10int_writerIjNS0_18basic_format_specsIcEEE10hex_writerEEclIRPcEEvOT_	00000000 .xt.prop._ZNK3fmt2v68internal12basic_writerINS0_12buffer_rangeIcEEE17padded_int_writerINS5_10int_writerIjNS0_18basic_format_specsIcEEE10hex_writerEEclIRPcEEvOT_
00000000 l    d  .xt.prop._ZN3fmt2v68internal12basic_writerINS0_12buffer_rangeIcEEE12write_paddedINS5_17padded_int_writerINS5_10int_writerIjNS0_18basic_format_specsIcEEE10hex_writerEEEEEvRKSA_OT_	00000000 .xt.prop._ZN3fmt2v68internal12basic_writerINS0_12buffer_rangeIcEEE12write_paddedINS5_17padded_int_writerINS5_10int_writerIjNS0_18basic_format_specsIcEEE10hex_writerEEEEEvRKSA_OT_
00000000 l    d  .xt.prop._ZN3fmt2v68internal12basic_writerINS0_12buffer_rangeIcEEE10int_writerIjNS0_18basic_format_specsIcEEE6on_hexEv	00000000 .xt.prop._ZN3fmt2v68internal12basic_writerINS0_12buffer_rangeIcEEE10int_writerIjNS0_18basic_format_specsIcEEE6on_hexEv
00000000 l    d  .xt.prop._ZNK3fmt2v68internal12basic_writerINS0_12buffer_rangeIcEEE17padded_int_writerINS5_10int_writerIjNS0_18basic_format_specsIcEEE10bin_writerILi1EEEEclIRPcEEvOT_	00000000 .xt.prop._ZNK3fmt2v68internal12basic_writerINS0_12buffer_rangeIcEEE17padded_int_writerINS5_10int_writerIjNS0_18basic_format_specsIcEEE10bin_writerILi1EEEEclIRPcEEvOT_
00000000 l    d  .xt.prop._ZN3fmt2v68internal12basic_writerINS0_12buffer_rangeIcEEE12write_paddedINS5_17padded_int_writerINS5_10int_writerIjNS0_18basic_format_specsIcEEE10bin_writerILi1EEEEEEEvRKSA_OT_	00000000 .xt.prop._ZN3fmt2v68internal12basic_writerINS0_12buffer_rangeIcEEE12write_paddedINS5_17padded_int_writerINS5_10int_writerIjNS0_18basic_format_specsIcEEE10bin_writerILi1EEEEEEEvRKSA_OT_
00000000 l    d  .xt.prop._ZN3fmt2v68internal12basic_writerINS0_12buffer_rangeIcEEE10int_writerIjNS0_18basic_format_specsIcEEE6on_binEv	00000000 .xt.prop._ZN3fmt2v68internal12basic_writerINS0_12buffer_rangeIcEEE10int_writerIjNS0_18basic_format_specsIcEEE6on_binEv
00000000 l    d  .xt.prop._ZNK3fmt2v68internal12basic_writerINS0_12buffer_rangeIcEEE17padded_int_writerINS5_10int_writerIjNS0_18basic_format_specsIcEEE10bin_writerILi3EEEEclIRPcEEvOT_	00000000 .xt.prop._ZNK3fmt2v68internal12basic_writerINS0_12buffer_rangeIcEEE17padded_int_writerINS5_10int_writerIjNS0_18basic_format_specsIcEEE10bin_writerILi3EEEEclIRPcEEvOT_
00000000 l    d  .xt.prop._ZN3fmt2v68internal12basic_writerINS0_12buffer_rangeIcEEE12write_paddedINS5_17padded_int_writerINS5_10int_writerIjNS0_18basic_format_specsIcEEE10bin_writerILi3EEEEEEEvRKSA_OT_	00000000 .xt.prop._ZN3fmt2v68internal12basic_writerINS0_12buffer_rangeIcEEE12write_paddedINS5_17padded_int_writerINS5_10int_writerIjNS0_18basic_format_specsIcEEE10bin_writerILi3EEEEEEEvRKSA_OT_
00000000 l    d  .xt.prop._ZN3fmt2v68internal12basic_writerINS0_12buffer_rangeIcEEE10int_writerIjNS0_18basic_format_specsIcEEE6on_octEv	00000000 .xt.prop._ZN3fmt2v68internal12basic_writerINS0_12buffer_rangeIcEEE10int_writerIjNS0_18basic_format_specsIcEEE6on_octEv
00000000 l    d  .xt.prop._ZNK3fmt2v68internal12basic_writerINS0_12buffer_rangeIcEEE17padded_int_writerINS5_10int_writerIxNS0_18basic_format_specsIcEEE10dec_writerEEclIRPcEEvOT_	00000000 .xt.prop._ZNK3fmt2v68internal12basic_writerINS0_12buffer_rangeIcEEE17padded_int_writerINS5_10int_writerIxNS0_18basic_format_specsIcEEE10dec_writerEEclIRPcEEvOT_
00000000 l    d  .xt.prop._ZN3fmt2v68internal12basic_writerINS0_12buffer_rangeIcEEE12write_paddedINS5_17padded_int_writerINS5_10int_writerIxNS0_18basic_format_specsIcEEE10dec_writerEEEEEvRKSA_OT_	00000000 .xt.prop._ZN3fmt2v68internal12basic_writerINS0_12buffer_rangeIcEEE12write_paddedINS5_17padded_int_writerINS5_10int_writerIxNS0_18basic_format_specsIcEEE10dec_writerEEEEEvRKSA_OT_
00000000 l    d  .xt.prop._ZN3fmt2v68internal12basic_writerINS0_12buffer_rangeIcEEE10int_writerIxNS0_18basic_format_specsIcEEE6on_decEv	00000000 .xt.prop._ZN3fmt2v68internal12basic_writerINS0_12buffer_rangeIcEEE10int_writerIxNS0_18basic_format_specsIcEEE6on_decEv
00000000 l    d  .xt.prop._ZNK3fmt2v68internal12basic_writerINS0_12buffer_rangeIcEEE17padded_int_writerINS5_10int_writerIxNS0_18basic_format_specsIcEEE10hex_writerEEclIRPcEEvOT_	00000000 .xt.prop._ZNK3fmt2v68internal12basic_writerINS0_12buffer_rangeIcEEE17padded_int_writerINS5_10int_writerIxNS0_18basic_format_specsIcEEE10hex_writerEEclIRPcEEvOT_
00000000 l    d  .xt.prop._ZN3fmt2v68internal12basic_writerINS0_12buffer_rangeIcEEE12write_paddedINS5_17padded_int_writerINS5_10int_writerIxNS0_18basic_format_specsIcEEE10hex_writerEEEEEvRKSA_OT_	00000000 .xt.prop._ZN3fmt2v68internal12basic_writerINS0_12buffer_rangeIcEEE12write_paddedINS5_17padded_int_writerINS5_10int_writerIxNS0_18basic_format_specsIcEEE10hex_writerEEEEEvRKSA_OT_
00000000 l    d  .xt.prop._ZN3fmt2v68internal12basic_writerINS0_12buffer_rangeIcEEE10int_writerIxNS0_18basic_format_specsIcEEE6on_hexEv	00000000 .xt.prop._ZN3fmt2v68internal12basic_writerINS0_12buffer_rangeIcEEE10int_writerIxNS0_18basic_format_specsIcEEE6on_hexEv
00000000 l    d  .xt.prop._ZNK3fmt2v68internal12basic_writerINS0_12buffer_rangeIcEEE17padded_int_writerINS5_10int_writerIxNS0_18basic_format_specsIcEEE10bin_writerILi1EEEEclIRPcEEvOT_	00000000 .xt.prop._ZNK3fmt2v68internal12basic_writerINS0_12buffer_rangeIcEEE17padded_int_writerINS5_10int_writerIxNS0_18basic_format_specsIcEEE10bin_writerILi1EEEEclIRPcEEvOT_
00000000 l    d  .xt.prop._ZN3fmt2v68internal12basic_writerINS0_12buffer_rangeIcEEE12write_paddedINS5_17padded_int_writerINS5_10int_writerIxNS0_18basic_format_specsIcEEE10bin_writerILi1EEEEEEEvRKSA_OT_	00000000 .xt.prop._ZN3fmt2v68internal12basic_writerINS0_12buffer_rangeIcEEE12write_paddedINS5_17padded_int_writerINS5_10int_writerIxNS0_18basic_format_specsIcEEE10bin_writerILi1EEEEEEEvRKSA_OT_
00000000 l    d  .xt.prop._ZN3fmt2v68internal12basic_writerINS0_12buffer_rangeIcEEE10int_writerIxNS0_18basic_format_specsIcEEE6on_binEv	00000000 .xt.prop._ZN3fmt2v68internal12basic_writerINS0_12buffer_rangeIcEEE10int_writerIxNS0_18basic_format_specsIcEEE6on_binEv
00000000 l    d  .xt.prop._ZNK3fmt2v68internal12basic_writerINS0_12buffer_rangeIcEEE17padded_int_writerINS5_10int_writerIxNS0_18basic_format_specsIcEEE10bin_writerILi3EEEEclIRPcEEvOT_	00000000 .xt.prop._ZNK3fmt2v68internal12basic_writerINS0_12buffer_rangeIcEEE17padded_int_writerINS5_10int_writerIxNS0_18basic_format_specsIcEEE10bin_writerILi3EEEEclIRPcEEvOT_
00000000 l    d  .xt.prop._ZN3fmt2v68internal12basic_writerINS0_12buffer_rangeIcEEE12write_paddedINS5_17padded_int_writerINS5_10int_writerIxNS0_18basic_format_specsIcEEE10bin_writerILi3EEEEEEEvRKSA_OT_	00000000 .xt.prop._ZN3fmt2v68internal12basic_writerINS0_12buffer_rangeIcEEE12write_paddedINS5_17padded_int_writerINS5_10int_writerIxNS0_18basic_format_specsIcEEE10bin_writerILi3EEEEEEEvRKSA_OT_
00000000 l    d  .xt.prop._ZN3fmt2v68internal12basic_writerINS0_12buffer_rangeIcEEE10int_writerIxNS0_18basic_format_specsIcEEE6on_octEv	00000000 .xt.prop._ZN3fmt2v68internal12basic_writerINS0_12buffer_rangeIcEEE10int_writerIxNS0_18basic_format_specsIcEEE6on_octEv
00000000 l    d  .xt.prop._ZNK3fmt2v68internal12basic_writerINS0_12buffer_rangeIcEEE17padded_int_writerINS5_10int_writerIyNS0_18basic_format_specsIcEEE10dec_writerEEclIRPcEEvOT_	00000000 .xt.prop._ZNK3fmt2v68internal12basic_writerINS0_12buffer_rangeIcEEE17padded_int_writerINS5_10int_writerIyNS0_18basic_format_specsIcEEE10dec_writerEEclIRPcEEvOT_
00000000 l    d  .xt.prop._ZN3fmt2v68internal12basic_writerINS0_12buffer_rangeIcEEE12write_paddedINS5_17padded_int_writerINS5_10int_writerIyNS0_18basic_format_specsIcEEE10dec_writerEEEEEvRKSA_OT_	00000000 .xt.prop._ZN3fmt2v68internal12basic_writerINS0_12buffer_rangeIcEEE12write_paddedINS5_17padded_int_writerINS5_10int_writerIyNS0_18basic_format_specsIcEEE10dec_writerEEEEEvRKSA_OT_
00000000 l    d  .xt.prop._ZN3fmt2v68internal12basic_writerINS0_12buffer_rangeIcEEE10int_writerIyNS0_18basic_format_specsIcEEE6on_decEv	00000000 .xt.prop._ZN3fmt2v68internal12basic_writerINS0_12buffer_rangeIcEEE10int_writerIyNS0_18basic_format_specsIcEEE6on_decEv
00000000 l    d  .xt.prop._ZNK3fmt2v68internal12basic_writerINS0_12buffer_rangeIcEEE17padded_int_writerINS5_10int_writerIyNS0_18basic_format_specsIcEEE10hex_writerEEclIRPcEEvOT_	00000000 .xt.prop._ZNK3fmt2v68internal12basic_writerINS0_12buffer_rangeIcEEE17padded_int_writerINS5_10int_writerIyNS0_18basic_format_specsIcEEE10hex_writerEEclIRPcEEvOT_
00000000 l    d  .xt.prop._ZN3fmt2v68internal12basic_writerINS0_12buffer_rangeIcEEE12write_paddedINS5_17padded_int_writerINS5_10int_writerIyNS0_18basic_format_specsIcEEE10hex_writerEEEEEvRKSA_OT_	00000000 .xt.prop._ZN3fmt2v68internal12basic_writerINS0_12buffer_rangeIcEEE12write_paddedINS5_17padded_int_writerINS5_10int_writerIyNS0_18basic_format_specsIcEEE10hex_writerEEEEEvRKSA_OT_
00000000 l    d  .xt.prop._ZN3fmt2v68internal12basic_writerINS0_12buffer_rangeIcEEE10int_writerIyNS0_18basic_format_specsIcEEE6on_hexEv	00000000 .xt.prop._ZN3fmt2v68internal12basic_writerINS0_12buffer_rangeIcEEE10int_writerIyNS0_18basic_format_specsIcEEE6on_hexEv
00000000 l    d  .xt.prop._ZNK3fmt2v68internal12basic_writerINS0_12buffer_rangeIcEEE17padded_int_writerINS5_10int_writerIyNS0_18basic_format_specsIcEEE10bin_writerILi1EEEEclIRPcEEvOT_	00000000 .xt.prop._ZNK3fmt2v68internal12basic_writerINS0_12buffer_rangeIcEEE17padded_int_writerINS5_10int_writerIyNS0_18basic_format_specsIcEEE10bin_writerILi1EEEEclIRPcEEvOT_
00000000 l    d  .xt.prop._ZN3fmt2v68internal12basic_writerINS0_12buffer_rangeIcEEE12write_paddedINS5_17padded_int_writerINS5_10int_writerIyNS0_18basic_format_specsIcEEE10bin_writerILi1EEEEEEEvRKSA_OT_	00000000 .xt.prop._ZN3fmt2v68internal12basic_writerINS0_12buffer_rangeIcEEE12write_paddedINS5_17padded_int_writerINS5_10int_writerIyNS0_18basic_format_specsIcEEE10bin_writerILi1EEEEEEEvRKSA_OT_
00000000 l    d  .xt.prop._ZN3fmt2v68internal12basic_writerINS0_12buffer_rangeIcEEE10int_writerIyNS0_18basic_format_specsIcEEE6on_binEv	00000000 .xt.prop._ZN3fmt2v68internal12basic_writerINS0_12buffer_rangeIcEEE10int_writerIyNS0_18basic_format_specsIcEEE6on_binEv
00000000 l    d  .xt.prop._ZNK3fmt2v68internal12basic_writerINS0_12buffer_rangeIcEEE17padded_int_writerINS5_10int_writerIyNS0_18basic_format_specsIcEEE10bin_writerILi3EEEEclIRPcEEvOT_	00000000 .xt.prop._ZNK3fmt2v68internal12basic_writerINS0_12buffer_rangeIcEEE17padded_int_writerINS5_10int_writerIyNS0_18basic_format_specsIcEEE10bin_writerILi3EEEEclIRPcEEvOT_
00000000 l    d  .xt.prop._ZN3fmt2v68internal12basic_writerINS0_12buffer_rangeIcEEE12write_paddedINS5_17padded_int_writerINS5_10int_writerIyNS0_18basic_format_specsIcEEE10bin_writerILi3EEEEEEEvRKSA_OT_	00000000 .xt.prop._ZN3fmt2v68internal12basic_writerINS0_12buffer_rangeIcEEE12write_paddedINS5_17padded_int_writerINS5_10int_writerIyNS0_18basic_format_specsIcEEE10bin_writerILi3EEEEEEEvRKSA_OT_
00000000 l    d  .xt.prop._ZN3fmt2v68internal12basic_writerINS0_12buffer_rangeIcEEE10int_writerIyNS0_18basic_format_specsIcEEE6on_octEv	00000000 .xt.prop._ZN3fmt2v68internal12basic_writerINS0_12buffer_rangeIcEEE10int_writerIyNS0_18basic_format_specsIcEEE6on_octEv
00000000 l    d  .xt.prop._ZZNK3fmt2v68internal12basic_writerINS0_12buffer_rangeIcEEE10int_writerIiNS0_18basic_format_specsIcEEE10num_writerclIRPcEEvOT_ENKUlSD_E_clESD_	00000000 .xt.prop._ZZNK3fmt2v68internal12basic_writerINS0_12buffer_rangeIcEEE10int_writerIiNS0_18basic_format_specsIcEEE10num_writerclIRPcEEvOT_ENKUlSD_E_clESD_
00000000 l    d  .xt.prop._ZNK3fmt2v68internal12basic_writerINS0_12buffer_rangeIcEEE10int_writerIiNS0_18basic_format_specsIcEEE10num_writerclIRPcEEvOT_	00000000 .xt.prop._ZNK3fmt2v68internal12basic_writerINS0_12buffer_rangeIcEEE10int_writerIiNS0_18basic_format_specsIcEEE10num_writerclIRPcEEvOT_
00000000 l    d  .xt.prop._ZNK3fmt2v68internal12basic_writerINS0_12buffer_rangeIcEEE17padded_int_writerINS5_10int_writerIiNS0_18basic_format_specsIcEEE10num_writerEEclIRPcEEvOT_	00000000 .xt.prop._ZNK3fmt2v68internal12basic_writerINS0_12buffer_rangeIcEEE17padded_int_writerINS5_10int_writerIiNS0_18basic_format_specsIcEEE10num_writerEEclIRPcEEvOT_
00000000 l    d  .xt.prop._ZN3fmt2v68internal12basic_writerINS0_12buffer_rangeIcEEE12write_paddedINS5_17padded_int_writerINS5_10int_writerIiNS0_18basic_format_specsIcEEE10num_writerEEEEEvRKSA_OT_	00000000 .xt.prop._ZN3fmt2v68internal12basic_writerINS0_12buffer_rangeIcEEE12write_paddedINS5_17padded_int_writerINS5_10int_writerIiNS0_18basic_format_specsIcEEE10num_writerEEEEEvRKSA_OT_
00000000 l    d  .xt.prop._ZN3fmt2v68internal12basic_writerINS0_12buffer_rangeIcEEE10int_writerIiNS0_18basic_format_specsIcEEE6on_numEv	00000000 .xt.prop._ZN3fmt2v68internal12basic_writerINS0_12buffer_rangeIcEEE10int_writerIiNS0_18basic_format_specsIcEEE6on_numEv
00000000 l    d  .xt.prop._ZN3fmt2v68internal20handle_int_type_specINS1_12basic_writerINS0_12buffer_rangeIcEEE10int_writerIiNS0_18basic_format_specsIcEEEEEEvcOT_	00000000 .xt.prop._ZN3fmt2v68internal20handle_int_type_specINS1_12basic_writerINS0_12buffer_rangeIcEEE10int_writerIiNS0_18basic_format_specsIcEEEEEEvcOT_
00000000 l    d  .xt.prop._ZN3fmt2v68internal18arg_formatter_baseINS0_12buffer_rangeIcEENS1_13error_handlerEEclIiLi0EEESt20back_insert_iteratorINS1_6bufferIcEEET_	00000000 .xt.prop._ZN3fmt2v68internal18arg_formatter_baseINS0_12buffer_rangeIcEENS1_13error_handlerEEclIiLi0EEESt20back_insert_iteratorINS1_6bufferIcEEET_
00000000 l    d  .xt.prop._ZZNK3fmt2v68internal12basic_writerINS0_12buffer_rangeIcEEE10int_writerIjNS0_18basic_format_specsIcEEE10num_writerclIRPcEEvOT_ENKUlSD_E_clESD_	00000000 .xt.prop._ZZNK3fmt2v68internal12basic_writerINS0_12buffer_rangeIcEEE10int_writerIjNS0_18basic_format_specsIcEEE10num_writerclIRPcEEvOT_ENKUlSD_E_clESD_
00000000 l    d  .xt.prop._ZNK3fmt2v68internal12basic_writerINS0_12buffer_rangeIcEEE10int_writerIjNS0_18basic_format_specsIcEEE10num_writerclIRPcEEvOT_	00000000 .xt.prop._ZNK3fmt2v68internal12basic_writerINS0_12buffer_rangeIcEEE10int_writerIjNS0_18basic_format_specsIcEEE10num_writerclIRPcEEvOT_
00000000 l    d  .xt.prop._ZNK3fmt2v68internal12basic_writerINS0_12buffer_rangeIcEEE17padded_int_writerINS5_10int_writerIjNS0_18basic_format_specsIcEEE10num_writerEEclIRPcEEvOT_	00000000 .xt.prop._ZNK3fmt2v68internal12basic_writerINS0_12buffer_rangeIcEEE17padded_int_writerINS5_10int_writerIjNS0_18basic_format_specsIcEEE10num_writerEEclIRPcEEvOT_
00000000 l    d  .xt.prop._ZN3fmt2v68internal12basic_writerINS0_12buffer_rangeIcEEE12write_paddedINS5_17padded_int_writerINS5_10int_writerIjNS0_18basic_format_specsIcEEE10num_writerEEEEEvRKSA_OT_	00000000 .xt.prop._ZN3fmt2v68internal12basic_writerINS0_12buffer_rangeIcEEE12write_paddedINS5_17padded_int_writerINS5_10int_writerIjNS0_18basic_format_specsIcEEE10num_writerEEEEEvRKSA_OT_
00000000 l    d  .xt.prop._ZN3fmt2v68internal12basic_writerINS0_12buffer_rangeIcEEE10int_writerIjNS0_18basic_format_specsIcEEE6on_numEv	00000000 .xt.prop._ZN3fmt2v68internal12basic_writerINS0_12buffer_rangeIcEEE10int_writerIjNS0_18basic_format_specsIcEEE6on_numEv
00000000 l    d  .xt.prop._ZN3fmt2v68internal20handle_int_type_specINS1_12basic_writerINS0_12buffer_rangeIcEEE10int_writerIjNS0_18basic_format_specsIcEEEEEEvcOT_	00000000 .xt.prop._ZN3fmt2v68internal20handle_int_type_specINS1_12basic_writerINS0_12buffer_rangeIcEEE10int_writerIjNS0_18basic_format_specsIcEEEEEEvcOT_
00000000 l    d  .xt.prop._ZZNK3fmt2v68internal12basic_writerINS0_12buffer_rangeIcEEE10int_writerIxNS0_18basic_format_specsIcEEE10num_writerclIRPcEEvOT_ENKUlSD_E_clESD_	00000000 .xt.prop._ZZNK3fmt2v68internal12basic_writerINS0_12buffer_rangeIcEEE10int_writerIxNS0_18basic_format_specsIcEEE10num_writerclIRPcEEvOT_ENKUlSD_E_clESD_
00000000 l    d  .xt.prop._ZNK3fmt2v68internal12basic_writerINS0_12buffer_rangeIcEEE10int_writerIxNS0_18basic_format_specsIcEEE10num_writerclIRPcEEvOT_	00000000 .xt.prop._ZNK3fmt2v68internal12basic_writerINS0_12buffer_rangeIcEEE10int_writerIxNS0_18basic_format_specsIcEEE10num_writerclIRPcEEvOT_
00000000 l    d  .xt.prop._ZNK3fmt2v68internal12basic_writerINS0_12buffer_rangeIcEEE17padded_int_writerINS5_10int_writerIxNS0_18basic_format_specsIcEEE10num_writerEEclIRPcEEvOT_	00000000 .xt.prop._ZNK3fmt2v68internal12basic_writerINS0_12buffer_rangeIcEEE17padded_int_writerINS5_10int_writerIxNS0_18basic_format_specsIcEEE10num_writerEEclIRPcEEvOT_
00000000 l    d  .xt.prop._ZN3fmt2v68internal12basic_writerINS0_12buffer_rangeIcEEE12write_paddedINS5_17padded_int_writerINS5_10int_writerIxNS0_18basic_format_specsIcEEE10num_writerEEEEEvRKSA_OT_	00000000 .xt.prop._ZN3fmt2v68internal12basic_writerINS0_12buffer_rangeIcEEE12write_paddedINS5_17padded_int_writerINS5_10int_writerIxNS0_18basic_format_specsIcEEE10num_writerEEEEEvRKSA_OT_
00000000 l    d  .xt.prop._ZN3fmt2v68internal12basic_writerINS0_12buffer_rangeIcEEE10int_writerIxNS0_18basic_format_specsIcEEE6on_numEv	00000000 .xt.prop._ZN3fmt2v68internal12basic_writerINS0_12buffer_rangeIcEEE10int_writerIxNS0_18basic_format_specsIcEEE6on_numEv
00000000 l    d  .xt.prop._ZN3fmt2v68internal20handle_int_type_specINS1_12basic_writerINS0_12buffer_rangeIcEEE10int_writerIxNS0_18basic_format_specsIcEEEEEEvcOT_	00000000 .xt.prop._ZN3fmt2v68internal20handle_int_type_specINS1_12basic_writerINS0_12buffer_rangeIcEEE10int_writerIxNS0_18basic_format_specsIcEEEEEEvcOT_
00000000 l    d  .xt.prop._ZN3fmt2v68internal18arg_formatter_baseINS0_12buffer_rangeIcEENS1_13error_handlerEEclIxLi0EEESt20back_insert_iteratorINS1_6bufferIcEEET_	00000000 .xt.prop._ZN3fmt2v68internal18arg_formatter_baseINS0_12buffer_rangeIcEENS1_13error_handlerEEclIxLi0EEESt20back_insert_iteratorINS1_6bufferIcEEET_
00000000 l    d  .xt.prop._ZZNK3fmt2v68internal12basic_writerINS0_12buffer_rangeIcEEE10int_writerIyNS0_18basic_format_specsIcEEE10num_writerclIRPcEEvOT_ENKUlSD_E_clESD_	00000000 .xt.prop._ZZNK3fmt2v68internal12basic_writerINS0_12buffer_rangeIcEEE10int_writerIyNS0_18basic_format_specsIcEEE10num_writerclIRPcEEvOT_ENKUlSD_E_clESD_
00000000 l    d  .xt.prop._ZNK3fmt2v68internal12basic_writerINS0_12buffer_rangeIcEEE10int_writerIyNS0_18basic_format_specsIcEEE10num_writerclIRPcEEvOT_	00000000 .xt.prop._ZNK3fmt2v68internal12basic_writerINS0_12buffer_rangeIcEEE10int_writerIyNS0_18basic_format_specsIcEEE10num_writerclIRPcEEvOT_
00000000 l    d  .xt.prop._ZNK3fmt2v68internal12basic_writerINS0_12buffer_rangeIcEEE17padded_int_writerINS5_10int_writerIyNS0_18basic_format_specsIcEEE10num_writerEEclIRPcEEvOT_	00000000 .xt.prop._ZNK3fmt2v68internal12basic_writerINS0_12buffer_rangeIcEEE17padded_int_writerINS5_10int_writerIyNS0_18basic_format_specsIcEEE10num_writerEEclIRPcEEvOT_
00000000 l    d  .xt.prop._ZN3fmt2v68internal12basic_writerINS0_12buffer_rangeIcEEE12write_paddedINS5_17padded_int_writerINS5_10int_writerIyNS0_18basic_format_specsIcEEE10num_writerEEEEEvRKSA_OT_	00000000 .xt.prop._ZN3fmt2v68internal12basic_writerINS0_12buffer_rangeIcEEE12write_paddedINS5_17padded_int_writerINS5_10int_writerIyNS0_18basic_format_specsIcEEE10num_writerEEEEEvRKSA_OT_
00000000 l    d  .xt.prop._ZN3fmt2v68internal12basic_writerINS0_12buffer_rangeIcEEE10int_writerIyNS0_18basic_format_specsIcEEE6on_numEv	00000000 .xt.prop._ZN3fmt2v68internal12basic_writerINS0_12buffer_rangeIcEEE10int_writerIyNS0_18basic_format_specsIcEEE6on_numEv
00000000 l    d  .xt.prop._ZN3fmt2v68internal20handle_int_type_specINS1_12basic_writerINS0_12buffer_rangeIcEEE10int_writerIyNS0_18basic_format_specsIcEEEEEEvcOT_	00000000 .xt.prop._ZN3fmt2v68internal20handle_int_type_specINS1_12basic_writerINS0_12buffer_rangeIcEEE10int_writerIyNS0_18basic_format_specsIcEEEEEEvcOT_
00000000 l    d  .xt.prop._ZNK3fmt2v68internal12basic_writerINS0_12buffer_rangeIcEEE17padded_int_writerINS5_10int_writerIcNS0_18basic_format_specsIcEEE10dec_writerEEclIRPcEEvOT_	00000000 .xt.prop._ZNK3fmt2v68internal12basic_writerINS0_12buffer_rangeIcEEE17padded_int_writerINS5_10int_writerIcNS0_18basic_format_specsIcEEE10dec_writerEEclIRPcEEvOT_
00000000 l    d  .xt.prop._ZN3fmt2v68internal12basic_writerINS0_12buffer_rangeIcEEE12write_paddedINS5_17padded_int_writerINS5_10int_writerIcNS0_18basic_format_specsIcEEE10dec_writerEEEEEvRKSA_OT_	00000000 .xt.prop._ZN3fmt2v68internal12basic_writerINS0_12buffer_rangeIcEEE12write_paddedINS5_17padded_int_writerINS5_10int_writerIcNS0_18basic_format_specsIcEEE10dec_writerEEEEEvRKSA_OT_
00000000 l    d  .xt.prop._ZN3fmt2v68internal12basic_writerINS0_12buffer_rangeIcEEE10int_writerIcNS0_18basic_format_specsIcEEE6on_decEv	00000000 .xt.prop._ZN3fmt2v68internal12basic_writerINS0_12buffer_rangeIcEEE10int_writerIcNS0_18basic_format_specsIcEEE6on_decEv
00000000 l    d  .xt.prop._ZNK3fmt2v68internal12basic_writerINS0_12buffer_rangeIcEEE17padded_int_writerINS5_10int_writerIcNS0_18basic_format_specsIcEEE10hex_writerEEclIRPcEEvOT_	00000000 .xt.prop._ZNK3fmt2v68internal12basic_writerINS0_12buffer_rangeIcEEE17padded_int_writerINS5_10int_writerIcNS0_18basic_format_specsIcEEE10hex_writerEEclIRPcEEvOT_
00000000 l    d  .xt.prop._ZN3fmt2v68internal12basic_writerINS0_12buffer_rangeIcEEE12write_paddedINS5_17padded_int_writerINS5_10int_writerIcNS0_18basic_format_specsIcEEE10hex_writerEEEEEvRKSA_OT_	00000000 .xt.prop._ZN3fmt2v68internal12basic_writerINS0_12buffer_rangeIcEEE12write_paddedINS5_17padded_int_writerINS5_10int_writerIcNS0_18basic_format_specsIcEEE10hex_writerEEEEEvRKSA_OT_
00000000 l    d  .xt.prop._ZN3fmt2v68internal12basic_writerINS0_12buffer_rangeIcEEE10int_writerIcNS0_18basic_format_specsIcEEE6on_hexEv	00000000 .xt.prop._ZN3fmt2v68internal12basic_writerINS0_12buffer_rangeIcEEE10int_writerIcNS0_18basic_format_specsIcEEE6on_hexEv
00000000 l    d  .xt.prop._ZNK3fmt2v68internal12basic_writerINS0_12buffer_rangeIcEEE17padded_int_writerINS5_10int_writerIcNS0_18basic_format_specsIcEEE10bin_writerILi1EEEEclIRPcEEvOT_	00000000 .xt.prop._ZNK3fmt2v68internal12basic_writerINS0_12buffer_rangeIcEEE17padded_int_writerINS5_10int_writerIcNS0_18basic_format_specsIcEEE10bin_writerILi1EEEEclIRPcEEvOT_
00000000 l    d  .xt.prop._ZN3fmt2v68internal12basic_writerINS0_12buffer_rangeIcEEE12write_paddedINS5_17padded_int_writerINS5_10int_writerIcNS0_18basic_format_specsIcEEE10bin_writerILi1EEEEEEEvRKSA_OT_	00000000 .xt.prop._ZN3fmt2v68internal12basic_writerINS0_12buffer_rangeIcEEE12write_paddedINS5_17padded_int_writerINS5_10int_writerIcNS0_18basic_format_specsIcEEE10bin_writerILi1EEEEEEEvRKSA_OT_
00000000 l    d  .xt.prop._ZN3fmt2v68internal12basic_writerINS0_12buffer_rangeIcEEE10int_writerIcNS0_18basic_format_specsIcEEE6on_binEv	00000000 .xt.prop._ZN3fmt2v68internal12basic_writerINS0_12buffer_rangeIcEEE10int_writerIcNS0_18basic_format_specsIcEEE6on_binEv
00000000 l    d  .xt.prop._ZNK3fmt2v68internal12basic_writerINS0_12buffer_rangeIcEEE17padded_int_writerINS5_10int_writerIcNS0_18basic_format_specsIcEEE10bin_writerILi3EEEEclIRPcEEvOT_	00000000 .xt.prop._ZNK3fmt2v68internal12basic_writerINS0_12buffer_rangeIcEEE17padded_int_writerINS5_10int_writerIcNS0_18basic_format_specsIcEEE10bin_writerILi3EEEEclIRPcEEvOT_
00000000 l    d  .xt.prop._ZN3fmt2v68internal12basic_writerINS0_12buffer_rangeIcEEE12write_paddedINS5_17padded_int_writerINS5_10int_writerIcNS0_18basic_format_specsIcEEE10bin_writerILi3EEEEEEEvRKSA_OT_	00000000 .xt.prop._ZN3fmt2v68internal12basic_writerINS0_12buffer_rangeIcEEE12write_paddedINS5_17padded_int_writerINS5_10int_writerIcNS0_18basic_format_specsIcEEE10bin_writerILi3EEEEEEEvRKSA_OT_
00000000 l    d  .xt.prop._ZN3fmt2v68internal12basic_writerINS0_12buffer_rangeIcEEE10int_writerIcNS0_18basic_format_specsIcEEE6on_octEv	00000000 .xt.prop._ZN3fmt2v68internal12basic_writerINS0_12buffer_rangeIcEEE10int_writerIcNS0_18basic_format_specsIcEEE6on_octEv
00000000 l    d  .xt.prop._ZZNK3fmt2v68internal12basic_writerINS0_12buffer_rangeIcEEE10int_writerIcNS0_18basic_format_specsIcEEE10num_writerclIRPcEEvOT_ENKUlSD_E_clESD_	00000000 .xt.prop._ZZNK3fmt2v68internal12basic_writerINS0_12buffer_rangeIcEEE10int_writerIcNS0_18basic_format_specsIcEEE10num_writerclIRPcEEvOT_ENKUlSD_E_clESD_
00000000 l    d  .xt.prop._ZNK3fmt2v68internal12basic_writerINS0_12buffer_rangeIcEEE10int_writerIcNS0_18basic_format_specsIcEEE10num_writerclIRPcEEvOT_	00000000 .xt.prop._ZNK3fmt2v68internal12basic_writerINS0_12buffer_rangeIcEEE10int_writerIcNS0_18basic_format_specsIcEEE10num_writerclIRPcEEvOT_
00000000 l    d  .xt.prop._ZNK3fmt2v68internal12basic_writerINS0_12buffer_rangeIcEEE17padded_int_writerINS5_10int_writerIcNS0_18basic_format_specsIcEEE10num_writerEEclIRPcEEvOT_	00000000 .xt.prop._ZNK3fmt2v68internal12basic_writerINS0_12buffer_rangeIcEEE17padded_int_writerINS5_10int_writerIcNS0_18basic_format_specsIcEEE10num_writerEEclIRPcEEvOT_
00000000 l    d  .xt.prop._ZN3fmt2v68internal12basic_writerINS0_12buffer_rangeIcEEE12write_paddedINS5_17padded_int_writerINS5_10int_writerIcNS0_18basic_format_specsIcEEE10num_writerEEEEEvRKSA_OT_	00000000 .xt.prop._ZN3fmt2v68internal12basic_writerINS0_12buffer_rangeIcEEE12write_paddedINS5_17padded_int_writerINS5_10int_writerIcNS0_18basic_format_specsIcEEE10num_writerEEEEEvRKSA_OT_
00000000 l    d  .xt.prop._ZN3fmt2v68internal12basic_writerINS0_12buffer_rangeIcEEE10int_writerIcNS0_18basic_format_specsIcEEE6on_numEv	00000000 .xt.prop._ZN3fmt2v68internal12basic_writerINS0_12buffer_rangeIcEEE10int_writerIcNS0_18basic_format_specsIcEEE6on_numEv
00000000 l    d  .xt.prop._ZN3fmt2v68internal20handle_int_type_specINS1_12basic_writerINS0_12buffer_rangeIcEEE10int_writerIcNS0_18basic_format_specsIcEEEEEEvcOT_	00000000 .xt.prop._ZN3fmt2v68internal20handle_int_type_specINS1_12basic_writerINS0_12buffer_rangeIcEEE10int_writerIcNS0_18basic_format_specsIcEEEEEEvcOT_
00000000 l    d  .xt.prop._ZN3fmt2v68internal18arg_formatter_baseINS0_12buffer_rangeIcEENS1_13error_handlerEEclEc	00000000 .xt.prop._ZN3fmt2v68internal18arg_formatter_baseINS0_12buffer_rangeIcEENS1_13error_handlerEEclEc
00000000 l    d  .xt.prop._ZN3fmt2v616visit_format_argINS0_13arg_formatterINS0_12buffer_rangeIcEEEENS0_20basic_format_contextISt20back_insert_iteratorINS0_8internal6bufferIcEEEcEEEEDTclfp_Li0EEEOT_RKNS0_16basic_format_argIT0_EE	00000000 .xt.prop._ZN3fmt2v616visit_format_argINS0_13arg_formatterINS0_12buffer_rangeIcEEEENS0_20basic_format_contextISt20back_insert_iteratorINS0_8internal6bufferIcEEEcEEEEDTclfp_Li0EEEOT_RKNS0_16basic_format_argIT0_EE
00000000 l    d  .xt.prop._ZN3fmt2v614format_handlerINS0_13arg_formatterINS0_12buffer_rangeIcEEEEcNS0_20basic_format_contextISt20back_insert_iteratorINS0_8internal6bufferIcEEEcEEE20on_replacement_fieldEPKc	00000000 .xt.prop._ZN3fmt2v614format_handlerINS0_13arg_formatterINS0_12buffer_rangeIcEEEEcNS0_20basic_format_contextISt20back_insert_iteratorINS0_8internal6bufferIcEEEcEEE20on_replacement_fieldEPKc
00000000 l    d  .xt.prop._ZN3fmt2v68internal19parse_format_stringILb0EcRNS0_14format_handlerINS0_13arg_formatterINS0_12buffer_rangeIcEEEEcNS0_20basic_format_contextISt20back_insert_iteratorINS1_6bufferIcEEEcEEEEEEvNS0_17basic_string_viewIT0_EEOT1_	00000000 .xt.prop._ZN3fmt2v68internal19parse_format_stringILb0EcRNS0_14format_handlerINS0_13arg_formatterINS0_12buffer_rangeIcEEEEcNS0_20basic_format_contextISt20back_insert_iteratorINS1_6bufferIcEEEcEEEEEEvNS0_17basic_string_viewIT0_EEOT1_
00000000 l    d  .xt.prop._ZN3fmt2v610vformat_toINS0_13arg_formatterINS0_12buffer_rangeIcEEEEcNS0_20basic_format_contextISt20back_insert_iteratorINS0_8internal6bufferIcEEEcEEEENT1_8iteratorENT_5rangeENS0_17basic_string_viewIT0_EENS0_17basic_format_argsISD_EENS8_10locale_refE	00000000 .xt.prop._ZN3fmt2v610vformat_toINS0_13arg_formatterINS0_12buffer_rangeIcEEEEcNS0_20basic_format_contextISt20back_insert_iteratorINS0_8internal6bufferIcEEEcEEEENT1_8iteratorENT_5rangeENS0_17basic_string_viewIT0_EENS0_17basic_format_argsISD_EENS8_10locale_refE
00000000 l    d  .xt.prop._ZN3fmt2v69format_toIA29_cJRhELj500EcEENS0_14buffer_contextIT2_E8iteratorERNS0_19basic_memory_bufferIS5_XT1_ESaIS5_EEERKT_DpOT0_	00000000 .xt.prop._ZN3fmt2v69format_toIA29_cJRhELj500EcEENS0_14buffer_contextIT2_E8iteratorERNS0_19basic_memory_bufferIS5_XT1_ESaIS5_EEERKT_DpOT0_
00000000 l    d  .xt.prop._ZN7Printer7processEPv	00000000 .xt.prop._ZN7Printer7processEPv
00000000 l    d  .xt.prop._ZN3fmt2v619basic_memory_bufferIcLj500ESaIcEED2Ev	00000000 .xt.prop._ZN3fmt2v619basic_memory_bufferIcLj500ESaIcEED2Ev
00000000 l    d  .xt.prop._ZN3fmt2v619basic_memory_bufferIcLj500ESaIcEED0Ev	00000000 .xt.prop._ZN3fmt2v619basic_memory_bufferIcLj500ESaIcEED0Ev
00000000 l    d  .xt.prop	00000000 .xt.prop
00000000 l    d  .xt.prop._ZN3fmt2v618basic_format_specsIcEC2Ev	00000000 .xt.prop._ZN3fmt2v618basic_format_specsIcEC2Ev
00000000 l    d  .xt.prop._ZN3fmt2v68internal13is_name_startIcEEbT_	00000000 .xt.prop._ZN3fmt2v68internal13is_name_startIcEEbT_
00000000 l    d  .xt.prop._ZN3fmt2v68internal6bufferIcE7reserveEj	00000000 .xt.prop._ZN3fmt2v68internal6bufferIcE7reserveEj
00000000 l    d  .xt.prop._ZN3fmt2v68internal7arg_mapINS0_20basic_format_contextISt20back_insert_iteratorINS1_6bufferIcEEEcEEE9push_backENS1_5valueIS8_EE$isra$71	00000000 .xt.prop._ZN3fmt2v68internal7arg_mapINS0_20basic_format_contextISt20back_insert_iteratorINS1_6bufferIcEEEcEEE9push_backENS1_5valueIS8_EE$isra$71
00000000 l    d  .xt.prop._ZN3fmt2v68internal8copy_strIcPKcNS1_17counting_iteratorELi0EEET1_T0_S7_S6_	00000000 .xt.prop._ZN3fmt2v68internal8copy_strIcPKcNS1_17counting_iteratorELi0EEET1_T0_S7_S6_
00000000 l    d  .xt.prop._ZN3fmt2v68internal12float_writerIcEC2EPKciiNS1_11float_specsEc	00000000 .xt.prop._ZN3fmt2v68internal12float_writerIcEC2EPKciiNS1_11float_specsEc
00000000 l    d  .xt.prop._ZTISt9exception	00000000 .xt.prop._ZTISt9exception
00000000 l    d  .xt.prop._ZTISt13runtime_error	00000000 .xt.prop._ZTISt13runtime_error
00000000 l    d  .xt.prop._ZTIN3fmt2v612format_errorE	00000000 .xt.prop._ZTIN3fmt2v612format_errorE
00000000 l    d  .xt.prop._ZTVN3fmt2v619basic_memory_bufferIcLj500ESaIcEEE	00000000 .xt.prop._ZTVN3fmt2v619basic_memory_bufferIcLj500ESaIcEEE
00000000 l    d  .group	00000000 .group
00000000 l    d  .group	00000000 .group
00000000 l    d  .group	00000000 .group
00000000 l    d  .group	00000000 .group
00000000 l    d  .group	00000000 .group
00000000 l    d  .group	00000000 .group
00000000 l    d  .group	00000000 .group
00000000 l    d  .group	00000000 .group
00000000 l    d  .group	00000000 .group
00000000 l    d  .group	00000000 .group
00000000 l    d  .group	00000000 .group
00000000 l    d  .group	00000000 .group
00000000 l    d  .group	00000000 .group
00000000 l    d  .group	00000000 .group
00000000 l    d  .group	00000000 .group
00000000 l    d  .group	00000000 .group
00000000 l    d  .group	00000000 .group
00000000 l    d  .group	00000000 .group
00000000 l    d  .group	00000000 .group
00000000 l    d  .group	00000000 .group
00000000 l    d  .group	00000000 .group
00000000 l    d  .group	00000000 .group
00000000 l    d  .group	00000000 .group
00000000 l    d  .group	00000000 .group
00000000 l    d  .group	00000000 .group
00000000 l    d  .group	00000000 .group
00000000 l    d  .group	00000000 .group
00000000 l    d  .group	00000000 .group
00000000 l    d  .group	00000000 .group
00000000 l    d  .group	00000000 .group
00000000 l    d  .group	00000000 .group
00000000 l    d  .group	00000000 .group
00000000 l    d  .group	00000000 .group
00000000 l    d  .group	00000000 .group
00000000 l    d  .group	00000000 .group
00000000 l    d  .group	00000000 .group
00000000 l    d  .group	00000000 .group
00000000 l    d  .group	00000000 .group
00000000 l    d  .group	00000000 .group
00000000 l    d  .group	00000000 .group
00000000 l    d  .group	00000000 .group
00000000 l    d  .group	00000000 .group
00000000 l    d  .group	00000000 .group
00000000 l    d  .group	00000000 .group
00000000 l    d  .group	00000000 .group
00000000 l    d  .group	00000000 .group
00000000 l    d  .group	00000000 .group
00000000 l    d  .group	00000000 .group
00000000 l    d  .group	00000000 .group
00000000 l    d  .group	00000000 .group
00000000 l    d  .group	00000000 .group
00000000 l    d  .group	00000000 .group
00000000 l    d  .group	00000000 .group
00000000 l    d  .group	00000000 .group
00000000 l    d  .group	00000000 .group
00000000 l    d  .group	00000000 .group
00000000 l    d  .group	00000000 .group
00000000 l    d  .group	00000000 .group
00000000 l    d  .group	00000000 .group
00000000 l    d  .group	00000000 .group
00000000 l    d  .group	00000000 .group
00000000 l    d  .group	00000000 .group
00000000 l    d  .group	00000000 .group
00000000 l    d  .group	00000000 .group
00000000 l    d  .group	00000000 .group
00000000 l    d  .group	00000000 .group
00000000 l    d  .group	00000000 .group
00000000 l    d  .group	00000000 .group
00000000 l    d  .group	00000000 .group
00000000 l    d  .group	00000000 .group
00000000 l    d  .group	00000000 .group
00000000 l    d  .group	00000000 .group
00000000 l    d  .group	00000000 .group
00000000 l    d  .group	00000000 .group
00000000 l    d  .group	00000000 .group
00000000 l    d  .group	00000000 .group
00000000 l    d  .group	00000000 .group
00000000 l    d  .group	00000000 .group
00000000 l    d  .group	00000000 .group
00000000 l    d  .group	00000000 .group
00000000 l    d  .group	00000000 .group
00000000 l    d  .group	00000000 .group
00000000 l    d  .group	00000000 .group
00000000 l    d  .group	00000000 .group
00000000 l    d  .group	00000000 .group
00000000 l    d  .group	00000000 .group
00000000 l    d  .group	00000000 .group
00000000 l    d  .group	00000000 .group
00000000 l    d  .group	00000000 .group
00000000 l    d  .group	00000000 .group
00000000 l    d  .group	00000000 .group
00000000 l    d  .group	00000000 .group
00000000 l    d  .group	00000000 .group
00000000 l    d  .group	00000000 .group
00000000 l    d  .group	00000000 .group
00000000 l    d  .group	00000000 .group
00000000 l    d  .group	00000000 .group
00000000 l    d  .group	00000000 .group
00000000 l    d  .group	00000000 .group
00000000 l    d  .group	00000000 .group
00000000 l    d  .group	00000000 .group
00000000 l    d  .group	00000000 .group
00000000 l    d  .group	00000000 .group
00000000 l    d  .group	00000000 .group
00000000 l    d  .group	00000000 .group
00000000 l    d  .group	00000000 .group
00000000 l    d  .group	00000000 .group
00000000 l    d  .group	00000000 .group
00000000 l    d  .group	00000000 .group
00000000 l    d  .group	00000000 .group
00000000 l    d  .group	00000000 .group
00000000 l    d  .group	00000000 .group
00000000 l    d  .group	00000000 .group
00000000 l    d  .group	00000000 .group
00000000 l    d  .group	00000000 .group
00000000 l    d  .group	00000000 .group
00000000 l    d  .group	00000000 .group
00000000 l    d  .group	00000000 .group
00000000 l    d  .group	00000000 .group
00000000 l    d  .group	00000000 .group
00000000 l    d  .group	00000000 .group
00000000 l    d  .group	00000000 .group
00000000 l    d  .group	00000000 .group
00000000 l    d  .group	00000000 .group
00000000 l    d  .group	00000000 .group
00000000 l    d  .group	00000000 .group
00000000 l    d  .group	00000000 .group
00000000 l    d  .group	00000000 .group
00000000 l    d  .group	00000000 .group
00000000 l    d  .group	00000000 .group
00000000 l    d  .group	00000000 .group
00000000 l    d  .group	00000000 .group
00000000 l    d  .group	00000000 .group
00000000 l    d  .group	00000000 .group
00000000 l    d  .group	00000000 .group
00000000 l    d  .group	00000000 .group
00000000 l    d  .group	00000000 .group
00000000 l    d  .group	00000000 .group
00000000 l    d  .group	00000000 .group
00000000 l    d  .group	00000000 .group
00000000 l    d  .group	00000000 .group
00000000 l    d  .group	00000000 .group
00000000 l    d  .group	00000000 .group
00000000 l    d  .group	00000000 .group
00000000 l    d  .group	00000000 .group
00000000 l    d  .group	00000000 .group
00000000 l    d  .group	00000000 .group
00000000 l    d  .group	00000000 .group
00000000 l    d  .group	00000000 .group
00000000 l    d  .group	00000000 .group
00000000 l    d  .group	00000000 .group
00000000 l    d  .group	00000000 .group
00000000 l    d  .group	00000000 .group
00000000 l    d  .group	00000000 .group
00000000 l    d  .group	00000000 .group
00000000 l    d  .group	00000000 .group
00000000 l    d  .group	00000000 .group
00000000 l    d  .group	00000000 .group
00000000 l    d  .group	00000000 .group
00000000 l    d  .group	00000000 .group
00000000 l    d  .group	00000000 .group
00000000 l    d  .group	00000000 .group
00000000 l    d  .group	00000000 .group
00000000 l    d  .group	00000000 .group
00000000 l    d  .group	00000000 .group
00000000 l    d  .group	00000000 .group
00000000 l    d  .group	00000000 .group
00000000 l    d  .group	00000000 .group
00000000 l    d  .group	00000000 .group
00000000 l    d  .group	00000000 .group
00000000 l    d  .group	00000000 .group
00000000 l    d  .group	00000000 .group
00000000 l    d  .group	00000000 .group
00000000 l    d  .group	00000000 .group
00000000 l    d  .group	00000000 .group
00000000 l    d  .group	00000000 .group
00000000 l    d  .group	00000000 .group
00000000 l    d  .group	00000000 .group
00000000 l    d  .group	00000000 .group
00000000 l    d  .group	00000000 .group
00000000 l    d  .group	00000000 .group
00000000 l    d  .group	00000000 .group
00000000 l    d  .group	00000000 .group
00000000 l    d  .group	00000000 .group
00000000 l    d  .group	00000000 .group
00000000 l    d  .group	00000000 .group
00000000 l    d  .group	00000000 .group
00000000 l    d  .group	00000000 .group
00000000 l    d  .group	00000000 .group
00000000 l    d  .group	00000000 .group
00000000 l    d  .group	00000000 .group
00000000 l    d  .group	00000000 .group
00000000 l    d  .group	00000000 .group
00000000 l    d  .group	00000000 .group
00000000 l    d  .group	00000000 .group
00000000 l    d  .group	00000000 .group
00000000 l    d  .group	00000000 .group
00000000 l    d  .group	00000000 .group
00000000 l    d  .group	00000000 .group
00000000 l    d  .group	00000000 .group
00000000 l    d  .group	00000000 .group
00000000 l    d  .group	00000000 .group
00000000 l    d  .group	00000000 .group
00000000 l    d  .group	00000000 .group
00000000 l    d  .group	00000000 .group
00000000 l    d  .group	00000000 .group
00000000 l    d  .group	00000000 .group
00000000 l    d  .group	00000000 .group
00000000 l    d  .group	00000000 .group
00000000 l    d  .group	00000000 .group
00000000 l    d  .group	00000000 .group
00000000 l    d  .group	00000000 .group
00000000 l    d  .group	00000000 .group
00000000 l    d  .group	00000000 .group
00000000 l    d  .group	00000000 .group
00000000 l    d  .group	00000000 .group
00000000 l    d  .group	00000000 .group
00000000 l    d  .group	00000000 .group
00000000 l    d  .group	00000000 .group
00000000 l    d  .group	00000000 .group
00000000 l    d  .group	00000000 .group
00000000 l    d  .group	00000000 .group
00000000 l    d  .group	00000000 .group
00000000 l    d  .group	00000000 .group
00000000 l    d  .group	00000000 .group
00000000 l    d  .group	00000000 .group
00000000 l    d  .group	00000000 .group
00000000 l    d  .group	00000000 .group
00000000 l    d  .group	00000000 .group
00000000 l    d  .group	00000000 .group
00000000 l    d  .group	00000000 .group
00000000 l    d  .group	00000000 .group
00000000 l    d  .group	00000000 .group
00000000 l    d  .group	00000000 .group
00000000 l    d  .group	00000000 .group
00000000 l    d  .group	00000000 .group
00000000 l    d  .group	00000000 .group
00000000 l    d  .group	00000000 .group
00000000 l    d  .group	00000000 .group
00000000 l    d  .group	00000000 .group
00000000 l    d  .group	00000000 .group
00000000 l    d  .group	00000000 .group
00000000 l    d  .group	00000000 .group
00000000 l    d  .group	00000000 .group
00000000 l    d  .group	00000000 .group
00000000 l    d  .group	00000000 .group
00000000 l    d  .group	00000000 .group
00000000 l    d  .group	00000000 .group
00000000 l    d  .group	00000000 .group
00000000 l    d  .group	00000000 .group
00000000 l    d  .group	00000000 .group
00000000 l    d  .group	00000000 .group
00000000 l    d  .group	00000000 .group
00000000 l    d  .group	00000000 .group
00000000 l    d  .group	00000000 .group
00000000 l    d  .group	00000000 .group
00000000 l    d  .group	00000000 .group
00000000 l    d  .group	00000000 .group
00000000 l    d  .group	00000000 .group
00000000 l    d  .group	00000000 .group
00000000 l    d  .group	00000000 .group
00000000 l    d  .group	00000000 .group
00000000 l    d  .group	00000000 .group
00000000 l    d  .group	00000000 .group
00000000 l    d  .group	00000000 .group
00000000 l    d  .group	00000000 .group
00000000 l    d  .group	00000000 .group
00000000 l    d  .group	00000000 .group
00000000 l    d  .group	00000000 .group
00000000 l    d  .group	00000000 .group
00000000 l    d  .group	00000000 .group
00000000 l    d  .group	00000000 .group
00000000 l    d  .group	00000000 .group
00000000 l    d  .group	00000000 .group
00000000 l    d  .group	00000000 .group
00000000 l    d  .group	00000000 .group
00000000 l    d  .group	00000000 .group
00000000 l    d  .group	00000000 .group
00000000 l    d  .group	00000000 .group
00000000 l    d  .group	00000000 .group
00000000 l    d  .group	00000000 .group
00000000 l    d  .group	00000000 .group
00000000 l    d  .group	00000000 .group
00000000 l    d  .group	00000000 .group
00000000 l    d  .group	00000000 .group
00000000 l    d  .group	00000000 .group
00000000 l    d  .group	00000000 .group
00000000 l    d  .group	00000000 .group
00000000 l    d  .group	00000000 .group
00000000 l    d  .group	00000000 .group
00000000 l    d  .group	00000000 .group
00000000 l    d  .group	00000000 .group
00000000 l    d  .group	00000000 .group
00000000 l    d  .group	00000000 .group
00000000 l    d  .group	00000000 .group
00000000 l    d  .group	00000000 .group
00000000 l    d  .group	00000000 .group
00000000 l    d  .group	00000000 .group
00000000 l    d  .group	00000000 .group
00000000 l    d  .group	00000000 .group
00000000 l    d  .group	00000000 .group
00000000 l    d  .group	00000000 .group
00000000 l    d  .group	00000000 .group
00000000 l    d  .group	00000000 .group
00000000 l    d  .group	00000000 .group
00000000 l    d  .group	00000000 .group
00000000 l    d  .group	00000000 .group
00000000 l    d  .group	00000000 .group
00000000 l    d  .group	00000000 .group
00000000 l    d  .group	00000000 .group
00000000 l    d  .group	00000000 .group
00000000 l    d  .group	00000000 .group
00000000 l    d  .group	00000000 .group
00000000 l    d  .group	00000000 .group
00000000 l    d  .group	00000000 .group
00000000 l    d  .group	00000000 .group
00000000 l    d  .group	00000000 .group
00000000 l    d  .group	00000000 .group
00000000 l    d  .group	00000000 .group
00000000 l    d  .group	00000000 .group
00000000 l    d  .group	00000000 .group
00000000 l    d  .group	00000000 .group
00000000 l    d  .group	00000000 .group
00000000 l    d  .group	00000000 .group
00000000         *UND*	00000000 vTaskNotifyGiveFromISR
00000000         *UND*	00000000 _frxt_setup_switch
00000000         *UND*	00000000 xthal_get_ccount
00000000  w    O .rodata._ZTVN3fmt2v619basic_memory_bufferIcLj500ESaIcEEE	00000014 vtable for fmt::v6::basic_memory_buffer<char, 500u, std::allocator<char> >
00000000  w    F .text._ZN3fmt2v619basic_memory_bufferIcLj500ESaIcEED2Ev	00000018 fmt::v6::basic_memory_buffer<char, 500u, std::allocator<char> >::~basic_memory_buffer()
00000000         *UND*	00000000 operator delete(void*)
00000000  w    F .text._ZN3fmt2v619basic_memory_bufferIcLj500ESaIcEED2Ev	00000018 fmt::v6::basic_memory_buffer<char, 500u, std::allocator<char> >::~basic_memory_buffer()
00000000  w    F .text._ZN3fmt2v619basic_memory_bufferIcLj500ESaIcEED0Ev	0000001a fmt::v6::basic_memory_buffer<char, 500u, std::allocator<char> >::~basic_memory_buffer()
00000000         *UND*	00000000 operator delete(void*, unsigned int)
00000000         *UND*	00000000 fmt::v6::internal::error_handler::on_error(char const*)
00000000         *UND*	00000000 fmt::v6::internal::assert_fail(char const*, int, char const*)
00000000         *UND*	00000000 memset
00000000         *UND*	00000000 vtable for fmt::v6::format_error
00000000         *UND*	00000000 fmt::v6::format_error::~format_error()
00000000  w    O .rodata._ZTIN3fmt2v612format_errorE	0000000c typeinfo for fmt::v6::format_error
00000000         *UND*	00000000 __cxa_allocate_exception
00000000         *UND*	00000000 std::runtime_error::runtime_error(char const*)
00000000         *UND*	00000000 __cxa_throw
00000000         *UND*	00000000 __cxa_free_exception
00000000         *UND*	00000000 _Unwind_Resume
00000000         *UND*	00000000 __gxx_personality_v0
00000000  w    F .text._ZN3fmt2v68internal16is_integral_typeENS1_4typeE	00000025 fmt::v6::internal::is_integral_type(fmt::v6::internal::type)
00000000         *UND*	00000000 fmt::v6::internal::basic_data<void>::zero_or_powers_of_10_64
00000000  w    F .text._ZN3fmt2v68internal12count_digitsEy	00000047 fmt::v6::internal::count_digits(unsigned long long)
00000000         *UND*	00000000 fmt::v6::internal::basic_data<void>::zero_or_powers_of_10_32
00000000  w    F .text._ZN3fmt2v68internal12count_digitsEj	00000034 fmt::v6::internal::count_digits(unsigned int)
00000000 g     O .bss._ZN7Printer5queueE	00000004 Printer::queue
00000000  w    F .text._ZN7Printer7processEPv	00000058 Printer::process(void*)
00000000  w    F .text._ZN7Printer5beginEjjj	00000098 Printer::begin(unsigned int, unsigned int, unsigned int)
00000000         *UND*	00000000 pathToFileName
00000000         *UND*	00000000 log_printf
00000000         *UND*	00000000 xQueueGenericCreate
00000000         *UND*	00000000 xTaskCreatePinnedToCore
00000000  w    F .iram1	0000001a Pin::setHigh()
00000000         *UND*	00000000 digitalWrite
0000001c  w    F .iram1	00000011 Pin::setLow()
00000030  w    F .iram1	00000122 OneWire::pinISR(void*)
00000000         *UND*	00000000 digitalRead
00000000         *UND*	00000000 vTaskEnterCritical
00000000         *UND*	00000000 vTaskExitCritical
00000000  w    F .text._ZN7OneWire11becomeSlaveEv	0000002a OneWire::becomeSlave()
00000000         *UND*	00000000 attachInterruptArg
00000000 g     F .text._Z4loopv	00000005 loop()
00000000  w    F .text._ZN3fmt2v68internal11to_unsignedIiEENSt13make_unsignedIT_E4typeES4_	00000017 std::make_unsigned<int>::type fmt::v6::internal::to_unsigned<int>(int)
00000000  w    F .text._ZN3fmt2v618basic_format_specsIcEC2Ev	0000005e fmt::v6::basic_format_specs<char>::basic_format_specs()
00000000         *UND*	00000000 memcpy
00000000  w    F .text._ZN3fmt2v618basic_format_specsIcEC2Ev	0000005e fmt::v6::basic_format_specs<char>::basic_format_specs()
00000000  w    F .text._ZN3fmt2v68internal13is_name_startIcEEbT_	0000002e bool fmt::v6::internal::is_name_start<char>(char)
00000000  w    F .text._ZN3fmt2v626basic_format_parse_contextIcNS0_8internal13error_handlerEE10advance_toEPKc	0000001d fmt::v6::basic_format_parse_context<char, fmt::v6::internal::error_handler>::advance_to(char const*)
00000000  w    F .text._ZN3fmt2v68internal11parse_alignIcRNS1_13specs_checkerINS1_13specs_handlerINS0_26basic_format_parse_contextIcNS1_13error_handlerEEENS0_20basic_format_contextISt20back_insert_iteratorINS1_6bufferIcEEEcEEEEEEEEPKT_SJ_SJ_OT0_	00000124 char const* fmt::v6::internal::parse_align<char, fmt::v6::internal::specs_checker<fmt::v6::internal::specs_handler<fmt::v6::basic_format_parse_context<char, fmt::v6::internal::error_handler>, fmt::v6::basic_format_context<std::back_insert_iterator<fmt::v6::internal::buffer<char> >, char> > >&>(char const*, char const*, fmt::v6::internal::specs_checker<fmt::v6::internal::specs_handler<fmt::v6::basic_format_parse_context<char, fmt::v6::internal::error_handler>, fmt::v6::basic_format_context<std::back_insert_iterator<fmt::v6::internal::buffer<char> >, char> > >&)
00000000  w    F .text._ZN3fmt2v68internal6bufferIcE7reserveEj	00000016 fmt::v6::internal::buffer<char>::reserve(unsigned int)
00000000  w    F .text._ZN3fmt2v68internal7reserveINS1_6bufferIcEELi0EEEPNT_10value_typeERSt20back_insert_iteratorIS5_Ej	0000001c fmt::v6::internal::buffer<char>::value_type* fmt::v6::internal::reserve<fmt::v6::internal::buffer<char>, 0>(std::back_insert_iterator<fmt::v6::internal::buffer<char> >&, unsigned int)
00000000  w    F .text._ZN3fmt2v68internal21numeric_specs_checkerINS1_13specs_handlerINS0_26basic_format_parse_contextIcNS1_13error_handlerEEENS0_20basic_format_contextISt20back_insert_iteratorINS1_6bufferIcEEEcEEEEE10check_signEv	00000030 fmt::v6::internal::numeric_specs_checker<fmt::v6::internal::specs_handler<fmt::v6::basic_format_parse_context<char, fmt::v6::internal::error_handler>, fmt::v6::basic_format_context<std::back_insert_iterator<fmt::v6::internal::buffer<char> >, char> > >::check_sign()
00000000  w    F .text._ZN3fmt2v68internal21parse_float_type_specINS1_13error_handlerEcEENS1_11float_specsERKNS0_18basic_format_specsIT0_EEOT_	000000f7 fmt::v6::internal::float_specs fmt::v6::internal::parse_float_type_spec<fmt::v6::internal::error_handler, char>(fmt::v6::basic_format_specs<char> const&, fmt::v6::internal::error_handler&&)
00000000  w    F .text._ZN3fmt2v68internal6bufferIcE9push_backERKc	00000022 fmt::v6::internal::buffer<char>::push_back(char const&)
00000000  w    F .text._ZN3fmt2v68internal21parse_nonnegative_intIcRNS1_17precision_adapterIRNS1_13specs_checkerINS1_13specs_handlerINS0_26basic_format_parse_contextIcNS1_13error_handlerEEENS0_20basic_format_contextISt20back_insert_iteratorINS1_6bufferIcEEEcEEEEEEcEEEEiRPKT_SM_OT0_	00000065 int fmt::v6::internal::parse_nonnegative_int<char, fmt::v6::internal::precision_adapter<fmt::v6::internal::specs_checker<fmt::v6::internal::specs_handler<fmt::v6::basic_format_parse_context<char, fmt::v6::internal::error_handler>, fmt::v6::basic_format_context<std::back_insert_iterator<fmt::v6::internal::buffer<char> >, char> > >&, char>&>(char const*&, char const*, fmt::v6::internal::precision_adapter<fmt::v6::internal::specs_checker<fmt::v6::internal::specs_handler<fmt::v6::basic_format_parse_context<char, fmt::v6::internal::error_handler>, fmt::v6::basic_format_context<std::back_insert_iterator<fmt::v6::internal::buffer<char> >, char> > >&, char>&)
00000000         *UND*	00000000 __lshrdi3
00000000  w    F .text._ZNK3fmt2v617basic_format_argsINS0_20basic_format_contextISt20back_insert_iteratorINS0_8internal6bufferIcEEEcEEE6do_getEi	000000be fmt::v6::basic_format_args<fmt::v6::basic_format_context<std::back_insert_iterator<fmt::v6::internal::buffer<char> >, char> >::do_get(int) const
00000000  w    F .text._ZNK3fmt2v68internal14named_arg_baseIcE11deserializeINS0_20basic_format_contextISt20back_insert_iteratorINS1_6bufferIcEEEcEEEENS0_16basic_format_argIT_EEv	0000001a fmt::v6::basic_format_arg<fmt::v6::basic_format_context<std::back_insert_iterator<fmt::v6::internal::buffer<char> >, char> > fmt::v6::internal::named_arg_base<char>::deserialize<fmt::v6::basic_format_context<std::back_insert_iterator<fmt::v6::internal::buffer<char> >, char> >() const
00000000  w    F .text._ZN3fmt2v68internal7get_argINS0_20basic_format_contextISt20back_insert_iteratorINS1_6bufferIcEEEcEEEENT_10format_argERS9_i	00000033 fmt::v6::basic_format_context<std::back_insert_iterator<fmt::v6::internal::buffer<char> >, char>::format_arg fmt::v6::internal::get_arg<fmt::v6::basic_format_context<std::back_insert_iterator<fmt::v6::internal::buffer<char> >, char> >(fmt::v6::basic_format_context<std::back_insert_iterator<fmt::v6::internal::buffer<char> >, char>&, int)
00000000  w    F .text._ZN3fmt2v614format_handlerINS0_13arg_formatterINS0_12buffer_rangeIcEEEEcNS0_20basic_format_contextISt20back_insert_iteratorINS0_8internal6bufferIcEEEcEEE7get_argEi	00000026 fmt::v6::format_handler<fmt::v6::arg_formatter<fmt::v6::buffer_range<char> >, char, fmt::v6::basic_format_context<std::back_insert_iterator<fmt::v6::internal::buffer<char> >, char> >::get_arg(int)
00000000  w    F .text._ZN3fmt2v614format_handlerINS0_13arg_formatterINS0_12buffer_rangeIcEEEEcNS0_20basic_format_contextISt20back_insert_iteratorINS0_8internal6bufferIcEEEcEEE9on_arg_idEv	00000024 fmt::v6::format_handler<fmt::v6::arg_formatter<fmt::v6::buffer_range<char> >, char, fmt::v6::basic_format_context<std::back_insert_iterator<fmt::v6::internal::buffer<char> >, char> >::on_arg_id()
00000000  w    F .text._ZN3fmt2v68internal7arg_mapINS0_20basic_format_contextISt20back_insert_iteratorINS1_6bufferIcEEEcEEE4initERKNS0_17basic_format_argsIS8_EE	000000a3 fmt::v6::internal::arg_map<fmt::v6::basic_format_context<std::back_insert_iterator<fmt::v6::internal::buffer<char> >, char> >::init(fmt::v6::basic_format_args<fmt::v6::basic_format_context<std::back_insert_iterator<fmt::v6::internal::buffer<char> >, char> > const&)
00000000         *UND*	00000000 operator new[](unsigned int)
00000000         *UND*	00000000 __cxa_throw_bad_array_new_length
00000000  w    F .text._ZN3fmt2v620basic_format_contextISt20back_insert_iteratorINS0_8internal6bufferIcEEEcE3argENS0_17basic_string_viewIcEE	00000082 fmt::v6::basic_format_context<std::back_insert_iterator<fmt::v6::internal::buffer<char> >, char>::arg(fmt::v6::basic_string_view<char>)
00000000         *UND*	00000000 memcmp
00000000  w    F .text._ZN3fmt2v68internal12parse_arg_idIcNS1_10id_adapterIRNS0_14format_handlerINS0_13arg_formatterINS0_12buffer_rangeIcEEEEcNS0_20basic_format_contextISt20back_insert_iteratorINS1_6bufferIcEEEcEEEEcEEEEPKT_SK_SK_OT0_	00000120 char const* fmt::v6::internal::parse_arg_id<char, fmt::v6::internal::id_adapter<fmt::v6::format_handler<fmt::v6::arg_formatter<fmt::v6::buffer_range<char> >, char, fmt::v6::basic_format_context<std::back_insert_iterator<fmt::v6::internal::buffer<char> >, char> >&, char> >(char const*, char const*, fmt::v6::internal::id_adapter<fmt::v6::format_handler<fmt::v6::arg_formatter<fmt::v6::buffer_range<char> >, char, fmt::v6::basic_format_context<std::back_insert_iterator<fmt::v6::internal::buffer<char> >, char> >&, char>&&)
00000000  w    F .text._ZNSt11__copy_moveILb0ELb1ESt26random_access_iterator_tagE8__copy_mIcEEPT_PKS3_S6_S4_	00000018 char* std::__copy_move<false, true, std::random_access_iterator_tag>::__copy_m<char>(char const*, char const*, char*)
00000000         *UND*	00000000 memmove
00000000  w    F .text._ZN3fmt2v614format_handlerINS0_13arg_formatterINS0_12buffer_rangeIcEEEEcNS0_20basic_format_contextISt20back_insert_iteratorINS0_8internal6bufferIcEEEcEEE7on_textEPKcSF_	0000002e fmt::v6::format_handler<fmt::v6::arg_formatter<fmt::v6::buffer_range<char> >, char, fmt::v6::basic_format_context<std::back_insert_iterator<fmt::v6::internal::buffer<char> >, char> >::on_text(char const*, char const*)
00000000  w    F .text._ZZN3fmt2v68internal19parse_format_stringILb0EcRNS0_14format_handlerINS0_13arg_formatterINS0_12buffer_rangeIcEEEEcNS0_20basic_format_contextISt20back_insert_iteratorINS1_6bufferIcEEEcEEEEEEvNS0_17basic_string_viewIT0_EEOT1_EN10pfs_writerclEPKcSN_	0000005a void fmt::v6::internal::parse_format_string<false, char, fmt::v6::format_handler<fmt::v6::arg_formatter<fmt::v6::buffer_range<char> >, char, fmt::v6::basic_format_context<std::back_insert_iterator<fmt::v6::internal::buffer<char> >, char> >&>(fmt::v6::basic_string_view<char>, fmt::v6::format_handler<fmt::v6::arg_formatter<fmt::v6::buffer_range<char> >, char, fmt::v6::basic_format_context<std::back_insert_iterator<fmt::v6::internal::buffer<char> >, char> >&)::pfs_writer::operator()(char const*, char const*)
00000000         *UND*	00000000 memchr
00000000  w    F .text._ZNK3fmt2v68internal12basic_writerINS0_12buffer_rangeIcEEE10str_writerIcEclIRPcEEvOT_	00000015 void fmt::v6::internal::basic_writer<fmt::v6::buffer_range<char> >::str_writer<char>::operator()<char*&>(char*&) const
00000000  w    F .text._ZN3fmt2v68internal12basic_writerINS0_12buffer_rangeIcEEE5writeENS0_17basic_string_viewIcEE	0000001b fmt::v6::internal::basic_writer<fmt::v6::buffer_range<char> >::write(fmt::v6::basic_string_view<char>)
00000000         *UND*	00000000 fmt::v6::internal::basic_data<void>::signs
00000000  w    F .text._ZNK3fmt2v68internal16nonfinite_writerIcEclIRPcEEvOT_	00000028 void fmt::v6::internal::nonfinite_writer<char>::operator()<char*&>(char*&) const
00000000         *UND*	00000000 __stack_chk_guard
00000000         *UND*	00000000 fmt::v6::internal::basic_data<void>::digits
00000000         *UND*	00000000 __stack_chk_fail
00000000         *UND*	00000000 __umoddi3
00000000         *UND*	00000000 __udivdi3
00000000  w    F .text._ZN3fmt2v68internal4fillIPccEET_S4_jRKNS1_6fill_tIT0_EE	0000003a char* fmt::v6::internal::fill<char*, char>(char*, unsigned int, fmt::v6::internal::fill_t<char> const&)
00000000  w    F .text._ZN3fmt2v68internal12basic_writerINS0_12buffer_rangeIcEEE12write_paddedINS5_10str_writerIcEEEEvRKNS0_18basic_format_specsIcEEOT_	000000c4 void fmt::v6::internal::basic_writer<fmt::v6::buffer_range<char> >::write_padded<fmt::v6::internal::basic_writer<fmt::v6::buffer_range<char> >::str_writer<char> >(fmt::v6::basic_format_specs<char> const&, fmt::v6::internal::basic_writer<fmt::v6::buffer_range<char> >::str_writer<char>&&)
00000000  w    F .text._ZN3fmt2v68internal12basic_writerINS0_12buffer_rangeIcEEE5writeIcEEvNS0_17basic_string_viewIT_EERKNS0_18basic_format_specsIcEE	00000032 void fmt::v6::internal::basic_writer<fmt::v6::buffer_range<char> >::write<char>(fmt::v6::basic_string_view<char>, fmt::v6::basic_format_specs<char> const&)
00000000  w    F .text._ZN3fmt2v68internal18arg_formatter_baseINS0_12buffer_rangeIcEENS1_13error_handlerEE5writeEPKc	00000060 fmt::v6::internal::arg_formatter_base<fmt::v6::buffer_range<char>, fmt::v6::internal::error_handler>::write(char const*)
00000000         *UND*	00000000 strlen
00000000  w    F .text._ZN3fmt2v68internal12basic_writerINS0_12buffer_rangeIcEEE12write_paddedINS1_16nonfinite_writerIcEEEEvRKNS0_18basic_format_specsIcEEOT_	000000b2 void fmt::v6::internal::basic_writer<fmt::v6::buffer_range<char> >::write_padded<fmt::v6::internal::nonfinite_writer<char> >(fmt::v6::basic_format_specs<char> const&, fmt::v6::internal::nonfinite_writer<char>&&)
00000000  w    F .text._ZN3fmt2v619basic_memory_bufferIcLj500ESaIcEE4growEj	0000003c fmt::v6::basic_memory_buffer<char, 500u, std::allocator<char> >::grow(unsigned int)
00000000         *UND*	00000000 operator new(unsigned int)
00000000  w    F .text._ZN3fmt2v68internal12basic_writerINS0_12buffer_rangeIcEEE12write_paddedINS1_18arg_formatter_baseIS4_NS1_13error_handlerEE11char_writerEEEvRKNS0_18basic_format_specsIcEEOT_	0000008c void fmt::v6::internal::basic_writer<fmt::v6::buffer_range<char> >::write_padded<fmt::v6::internal::arg_formatter_base<fmt::v6::buffer_range<char>, fmt::v6::internal::error_handler>::char_writer>(fmt::v6::basic_format_specs<char> const&, fmt::v6::internal::arg_formatter_base<fmt::v6::buffer_range<char>, fmt::v6::internal::error_handler>::char_writer&&)
00000000  w    F .text._ZN3fmt2v68internal18arg_formatter_baseINS0_12buffer_rangeIcEENS1_13error_handlerEE10write_charEc	00000027 fmt::v6::internal::arg_formatter_base<fmt::v6::buffer_range<char>, fmt::v6::internal::error_handler>::write_char(char)
00000000  w    F .text._ZN3fmt2v68internal8copy_strIcPKcNS1_17counting_iteratorELi0EEET1_T0_S7_S6_	0000000f fmt::v6::internal::counting_iterator fmt::v6::internal::copy_str<char, char const*, fmt::v6::internal::counting_iterator, 0>(char const*, char const*, fmt::v6::internal::counting_iterator)
00000000  w    F .text._ZNK3fmt2v68internal12float_writerIcE8prettifyINS1_17counting_iteratorEEET_S6_	0000015c fmt::v6::internal::counting_iterator fmt::v6::internal::float_writer<char>::prettify<fmt::v6::internal::counting_iterator>(fmt::v6::internal::counting_iterator) const
00000000  w    F .text._ZN3fmt2v68internal12float_writerIcEC2EPKciiNS1_11float_specsEc	0000004e fmt::v6::internal::float_writer<char>::float_writer(char const*, int, int, fmt::v6::internal::float_specs, char)
00000000  w    F .text._ZN3fmt2v68internal12float_writerIcEC2EPKciiNS1_11float_specsEc	0000004e fmt::v6::internal::float_writer<char>::float_writer(char const*, int, int, fmt::v6::internal::float_specs, char)
00000000  w    F .text._ZNK3fmt2v68internal12float_writerIcE8prettifyIPcEET_S6_	0000022c char* fmt::v6::internal::float_writer<char>::prettify<char*>(char*) const
00000000  w    F .text._ZN3fmt2v68internal12float_writerIcEclIRPcEEvOT_	00000028 void fmt::v6::internal::float_writer<char>::operator()<char*&>(char*&)
00000000  w    F .text._ZN3fmt2v68internal12basic_writerINS0_12buffer_rangeIcEEE12write_paddedINS1_12float_writerIcEEEEvRKNS0_18basic_format_specsIcEEOT_	0000009c void fmt::v6::internal::basic_writer<fmt::v6::buffer_range<char> >::write_padded<fmt::v6::internal::float_writer<char> >(fmt::v6::basic_format_specs<char> const&, fmt::v6::internal::float_writer<char>&&)
00000000         *UND*	00000000 __extendsfdf2
00000000  w    F .text._ZN3fmt2v68internal12basic_writerINS0_12buffer_rangeIcEEE5writeIfLi0EEEvT_NS0_18basic_format_specsIcEE	0000027e void fmt::v6::internal::basic_writer<fmt::v6::buffer_range<char> >::write<float, 0>(float, fmt::v6::basic_format_specs<char>)
00000000         *UND*	00000000 int fmt::v6::internal::snprintf_float<double>(double, int, fmt::v6::internal::float_specs, fmt::v6::internal::buffer<char>&)
00000000         *UND*	00000000 int fmt::v6::internal::format_float<double>(double, int, fmt::v6::internal::float_specs, fmt::v6::internal::buffer<char>&)
00000000         *UND*	00000000 char fmt::v6::internal::decimal_point_impl<char>(fmt::v6::internal::locale_ref)
00000000         *UND*	00000000 __unorddf2
00000000         *UND*	00000000 __gtdf2
00000000         *UND*	00000000 __ledf2
00000000  w    F .text._ZN3fmt2v68internal12basic_writerINS0_12buffer_rangeIcEEE5writeIdLi0EEEvT_NS0_18basic_format_specsIcEE	000002d4 void fmt::v6::internal::basic_writer<fmt::v6::buffer_range<char> >::write<double, 0>(double, fmt::v6::basic_format_specs<char>)
00000000  w    F .text._ZN3fmt2v68internal12basic_writerINS0_12buffer_rangeIcEEE5writeIeLi0EEEvT_NS0_18basic_format_specsIcEE	000002d0 void fmt::v6::internal::basic_writer<fmt::v6::buffer_range<char> >::write<long double, 0>(long double, fmt::v6::basic_format_specs<char>)
00000000         *UND*	00000000 int fmt::v6::internal::snprintf_float<long double>(long double, int, fmt::v6::internal::float_specs, fmt::v6::internal::buffer<char>&)
00000000         *UND*	00000000 int fmt::v6::internal::format_float<long double>(long double, int, fmt::v6::internal::float_specs, fmt::v6::internal::buffer<char>&)
00000000         *UND*	00000000 fmt::v6::internal::basic_data<void>::hex_digits
00000000  w    F .text._ZN3fmt2v68internal11format_uintILj4EcjEEPT0_S4_T1_ib	0000002a char* fmt::v6::internal::format_uint<4u, char, unsigned int>(char*, unsigned int, int, bool)
00000000  w    F .text._ZNK3fmt2v68internal12basic_writerINS0_12buffer_rangeIcEEE14pointer_writerIjEclIRPcEEvOT_	0000002c void fmt::v6::internal::basic_writer<fmt::v6::buffer_range<char> >::pointer_writer<unsigned int>::operator()<char*&>(char*&) const
00000000  w    F .text._ZN3fmt2v68internal12basic_writerINS0_12buffer_rangeIcEEE12write_paddedIRNS5_14pointer_writerIjEEEEvRKNS0_18basic_format_specsIcEEOT_	000000b4 void fmt::v6::internal::basic_writer<fmt::v6::buffer_range<char> >::write_padded<fmt::v6::internal::basic_writer<fmt::v6::buffer_range<char> >::pointer_writer<unsigned int>&>(fmt::v6::basic_format_specs<char> const&, fmt::v6::internal::basic_writer<fmt::v6::buffer_range<char> >::pointer_writer<unsigned int>&)
00000000  w    F .text._ZN3fmt2v68internal12basic_writerINS0_12buffer_rangeIcEEE13write_pointerIjEEvT_PKNS0_18basic_format_specsIcEE	0000006b void fmt::v6::internal::basic_writer<fmt::v6::buffer_range<char> >::write_pointer<unsigned int>(unsigned int, fmt::v6::basic_format_specs<char> const*)
00000000  w    F .text._ZN3fmt2v68internal18arg_formatter_baseINS0_12buffer_rangeIcEENS1_13error_handlerEE13write_pointerEPKv	00000012 fmt::v6::internal::arg_formatter_base<fmt::v6::buffer_range<char>, fmt::v6::internal::error_handler>::write_pointer(void const*)
00000000  w    F .text._ZN3fmt2v616visit_format_argINS0_8internal13width_checkerINS2_13error_handlerEEENS0_20basic_format_contextISt20back_insert_iteratorINS2_6bufferIcEEEcEEEEDTclfp_Li0EEEOT_RKNS0_16basic_format_argIT0_EE	0000008a decltype ({parm#1}(0)) fmt::v6::visit_format_arg<fmt::v6::internal::width_checker<fmt::v6::internal::error_handler>, fmt::v6::basic_format_context<std::back_insert_iterator<fmt::v6::internal::buffer<char> >, char> >(fmt::v6::internal::width_checker<fmt::v6::internal::error_handler>&&, fmt::v6::basic_format_arg<fmt::v6::basic_format_context<std::back_insert_iterator<fmt::v6::internal::buffer<char> >, char> > const&)
00000000  w    F .text._ZN3fmt2v68internal16get_dynamic_specINS1_13width_checkerENS0_16basic_format_argINS0_20basic_format_contextISt20back_insert_iteratorINS1_6bufferIcEEEcEEEENS1_13error_handlerEEEiT0_T1_	00000034 int fmt::v6::internal::get_dynamic_spec<fmt::v6::internal::width_checker, fmt::v6::basic_format_arg<fmt::v6::basic_format_context<std::back_insert_iterator<fmt::v6::internal::buffer<char> >, char> >, fmt::v6::internal::error_handler>(fmt::v6::basic_format_arg<fmt::v6::basic_format_context<std::back_insert_iterator<fmt::v6::internal::buffer<char> >, char> >, fmt::v6::internal::error_handler)
00000000  w    F .text._ZN3fmt2v68internal12parse_arg_idIcNS1_13width_adapterIRNS1_13specs_checkerINS1_13specs_handlerINS0_26basic_format_parse_contextIcNS1_13error_handlerEEENS0_20basic_format_contextISt20back_insert_iteratorINS1_6bufferIcEEEcEEEEEEcEEEEPKT_SL_SL_OT0_	0000010e char const* fmt::v6::internal::parse_arg_id<char, fmt::v6::internal::width_adapter<fmt::v6::internal::specs_checker<fmt::v6::internal::specs_handler<fmt::v6::basic_format_parse_context<char, fmt::v6::internal::error_handler>, fmt::v6::basic_format_context<std::back_insert_iterator<fmt::v6::internal::buffer<char> >, char> > >&, char> >(char const*, char const*, fmt::v6::internal::width_adapter<fmt::v6::internal::specs_checker<fmt::v6::internal::specs_handler<fmt::v6::basic_format_parse_context<char, fmt::v6::internal::error_handler>, fmt::v6::basic_format_context<std::back_insert_iterator<fmt::v6::internal::buffer<char> >, char> > >&, char>&&)
00000000  w    F .text._ZN3fmt2v616visit_format_argINS0_8internal17precision_checkerINS2_13error_handlerEEENS0_20basic_format_contextISt20back_insert_iteratorINS2_6bufferIcEEEcEEEEDTclfp_Li0EEEOT_RKNS0_16basic_format_argIT0_EE	0000008a decltype ({parm#1}(0)) fmt::v6::visit_format_arg<fmt::v6::internal::precision_checker<fmt::v6::internal::error_handler>, fmt::v6::basic_format_context<std::back_insert_iterator<fmt::v6::internal::buffer<char> >, char> >(fmt::v6::internal::precision_checker<fmt::v6::internal::error_handler>&&, fmt::v6::basic_format_arg<fmt::v6::basic_format_context<std::back_insert_iterator<fmt::v6::internal::buffer<char> >, char> > const&)
00000000  w    F .text._ZN3fmt2v68internal16get_dynamic_specINS1_17precision_checkerENS0_16basic_format_argINS0_20basic_format_contextISt20back_insert_iteratorINS1_6bufferIcEEEcEEEENS1_13error_handlerEEEiT0_T1_	00000034 int fmt::v6::internal::get_dynamic_spec<fmt::v6::internal::precision_checker, fmt::v6::basic_format_arg<fmt::v6::basic_format_context<std::back_insert_iterator<fmt::v6::internal::buffer<char> >, char> >, fmt::v6::internal::error_handler>(fmt::v6::basic_format_arg<fmt::v6::basic_format_context<std::back_insert_iterator<fmt::v6::internal::buffer<char> >, char> >, fmt::v6::internal::error_handler)
00000000  w    F .text._ZN3fmt2v68internal12parse_arg_idIcNS1_17precision_adapterIRNS1_13specs_checkerINS1_13specs_handlerINS0_26basic_format_parse_contextIcNS1_13error_handlerEEENS0_20basic_format_contextISt20back_insert_iteratorINS1_6bufferIcEEEcEEEEEEcEEEEPKT_SL_SL_OT0_	0000010e char const* fmt::v6::internal::parse_arg_id<char, fmt::v6::internal::precision_adapter<fmt::v6::internal::specs_checker<fmt::v6::internal::specs_handler<fmt::v6::basic_format_parse_context<char, fmt::v6::internal::error_handler>, fmt::v6::basic_format_context<std::back_insert_iterator<fmt::v6::internal::buffer<char> >, char> > >&, char> >(char const*, char const*, fmt::v6::internal::precision_adapter<fmt::v6::internal::specs_checker<fmt::v6::internal::specs_handler<fmt::v6::basic_format_parse_context<char, fmt::v6::internal::error_handler>, fmt::v6::basic_format_context<std::back_insert_iterator<fmt::v6::internal::buffer<char> >, char> > >&, char>&&)
00000000  w    F .text._ZN3fmt2v68internal15parse_precisionIcRNS1_13specs_checkerINS1_13specs_handlerINS0_26basic_format_parse_contextIcNS1_13error_handlerEEENS0_20basic_format_contextISt20back_insert_iteratorINS1_6bufferIcEEEcEEEEEEEEPKT_SJ_SJ_OT0_	0000008f char const* fmt::v6::internal::parse_precision<char, fmt::v6::internal::specs_checker<fmt::v6::internal::specs_handler<fmt::v6::basic_format_parse_context<char, fmt::v6::internal::error_handler>, fmt::v6::basic_format_context<std::back_insert_iterator<fmt::v6::internal::buffer<char> >, char> > >&>(char const*, char const*, fmt::v6::internal::specs_checker<fmt::v6::internal::specs_handler<fmt::v6::basic_format_parse_context<char, fmt::v6::internal::error_handler>, fmt::v6::basic_format_context<std::back_insert_iterator<fmt::v6::internal::buffer<char> >, char> > >&)
00000000  w    F .text._ZN3fmt2v68internal18parse_format_specsIcRNS1_13specs_checkerINS1_13specs_handlerINS0_26basic_format_parse_contextIcNS1_13error_handlerEEENS0_20basic_format_contextISt20back_insert_iteratorINS1_6bufferIcEEEcEEEEEEEEPKT_SJ_SJ_OT0_	0000018a char const* fmt::v6::internal::parse_format_specs<char, fmt::v6::internal::specs_checker<fmt::v6::internal::specs_handler<fmt::v6::basic_format_parse_context<char, fmt::v6::internal::error_handler>, fmt::v6::basic_format_context<std::back_insert_iterator<fmt::v6::internal::buffer<char> >, char> > >&>(char const*, char const*, fmt::v6::internal::specs_checker<fmt::v6::internal::specs_handler<fmt::v6::basic_format_parse_context<char, fmt::v6::internal::error_handler>, fmt::v6::basic_format_context<std::back_insert_iterator<fmt::v6::internal::buffer<char> >, char> > >&)
00000000  w    F .text._ZNK3fmt2v68internal12basic_writerINS0_12buffer_rangeIcEEE17padded_int_writerINS5_10int_writerIiNS0_18basic_format_specsIcEEE10dec_writerEEclIRPcEEvOT_	0000003a void fmt::v6::internal::basic_writer<fmt::v6::buffer_range<char> >::padded_int_writer<fmt::v6::internal::basic_writer<fmt::v6::buffer_range<char> >::int_writer<int, fmt::v6::basic_format_specs<char> >::dec_writer>::operator()<char*&>(char*&) const
00000000  w    F .text._ZN3fmt2v68internal12basic_writerINS0_12buffer_rangeIcEEE12write_paddedINS5_17padded_int_writerINS5_10int_writerIiNS0_18basic_format_specsIcEEE10dec_writerEEEEEvRKSA_OT_	0000009a void fmt::v6::internal::basic_writer<fmt::v6::buffer_range<char> >::write_padded<fmt::v6::internal::basic_writer<fmt::v6::buffer_range<char> >::padded_int_writer<fmt::v6::internal::basic_writer<fmt::v6::buffer_range<char> >::int_writer<int, fmt::v6::basic_format_specs<char> >::dec_writer> >(fmt::v6::basic_format_specs<char> const&, fmt::v6::internal::basic_writer<fmt::v6::buffer_range<char> >::padded_int_writer<fmt::v6::internal::basic_writer<fmt::v6::buffer_range<char> >::int_writer<int, fmt::v6::basic_format_specs<char> >::dec_writer>&&)
00000000  w    F .text._ZN3fmt2v68internal12basic_writerINS0_12buffer_rangeIcEEE10int_writerIiNS0_18basic_format_specsIcEEE6on_decEv	000000b3 fmt::v6::internal::basic_writer<fmt::v6::buffer_range<char> >::int_writer<int, fmt::v6::basic_format_specs<char> >::on_dec()
00000000  w    F .text._ZNK3fmt2v68internal12basic_writerINS0_12buffer_rangeIcEEE17padded_int_writerINS5_10int_writerIiNS0_18basic_format_specsIcEEE10hex_writerEEclIRPcEEvOT_	0000004c void fmt::v6::internal::basic_writer<fmt::v6::buffer_range<char> >::padded_int_writer<fmt::v6::internal::basic_writer<fmt::v6::buffer_range<char> >::int_writer<int, fmt::v6::basic_format_specs<char> >::hex_writer>::operator()<char*&>(char*&) const
00000000  w    F .text._ZN3fmt2v68internal12basic_writerINS0_12buffer_rangeIcEEE12write_paddedINS5_17padded_int_writerINS5_10int_writerIiNS0_18basic_format_specsIcEEE10hex_writerEEEEEvRKSA_OT_	0000009c void fmt::v6::internal::basic_writer<fmt::v6::buffer_range<char> >::write_padded<fmt::v6::internal::basic_writer<fmt::v6::buffer_range<char> >::padded_int_writer<fmt::v6::internal::basic_writer<fmt::v6::buffer_range<char> >::int_writer<int, fmt::v6::basic_format_specs<char> >::hex_writer> >(fmt::v6::basic_format_specs<char> const&, fmt::v6::internal::basic_writer<fmt::v6::buffer_range<char> >::padded_int_writer<fmt::v6::internal::basic_writer<fmt::v6::buffer_range<char> >::int_writer<int, fmt::v6::basic_format_specs<char> >::hex_writer>&&)
00000000  w    F .text._ZN3fmt2v68internal12basic_writerINS0_12buffer_rangeIcEEE10int_writerIiNS0_18basic_format_specsIcEEE6on_hexEv	000000c8 fmt::v6::internal::basic_writer<fmt::v6::buffer_range<char> >::int_writer<int, fmt::v6::basic_format_specs<char> >::on_hex()
00000000  w    F .text._ZNK3fmt2v68internal12basic_writerINS0_12buffer_rangeIcEEE17padded_int_writerINS5_10int_writerIiNS0_18basic_format_specsIcEEE10bin_writerILi1EEEEclIRPcEEvOT_	00000045 void fmt::v6::internal::basic_writer<fmt::v6::buffer_range<char> >::padded_int_writer<fmt::v6::internal::basic_writer<fmt::v6::buffer_range<char> >::int_writer<int, fmt::v6::basic_format_specs<char> >::bin_writer<1> >::operator()<char*&>(char*&) const
00000000  w    F .text._ZN3fmt2v68internal12basic_writerINS0_12buffer_rangeIcEEE12write_paddedINS5_17padded_int_writerINS5_10int_writerIiNS0_18basic_format_specsIcEEE10bin_writerILi1EEEEEEEvRKSA_OT_	0000009c void fmt::v6::internal::basic_writer<fmt::v6::buffer_range<char> >::write_padded<fmt::v6::internal::basic_writer<fmt::v6::buffer_range<char> >::padded_int_writer<fmt::v6::internal::basic_writer<fmt::v6::buffer_range<char> >::int_writer<int, fmt::v6::basic_format_specs<char> >::bin_writer<1> > >(fmt::v6::basic_format_specs<char> const&, fmt::v6::internal::basic_writer<fmt::v6::buffer_range<char> >::padded_int_writer<fmt::v6::internal::basic_writer<fmt::v6::buffer_range<char> >::int_writer<int, fmt::v6::basic_format_specs<char> >::bin_writer<1> >&&)
00000000  w    F .text._ZN3fmt2v68internal12basic_writerINS0_12buffer_rangeIcEEE10int_writerIiNS0_18basic_format_specsIcEEE6on_binEv	000000ca fmt::v6::internal::basic_writer<fmt::v6::buffer_range<char> >::int_writer<int, fmt::v6::basic_format_specs<char> >::on_bin()
00000000  w    F .text._ZNK3fmt2v68internal12basic_writerINS0_12buffer_rangeIcEEE17padded_int_writerINS5_10int_writerIiNS0_18basic_format_specsIcEEE10bin_writerILi3EEEEclIRPcEEvOT_	00000045 void fmt::v6::internal::basic_writer<fmt::v6::buffer_range<char> >::padded_int_writer<fmt::v6::internal::basic_writer<fmt::v6::buffer_range<char> >::int_writer<int, fmt::v6::basic_format_specs<char> >::bin_writer<3> >::operator()<char*&>(char*&) const
00000000  w    F .text._ZN3fmt2v68internal12basic_writerINS0_12buffer_rangeIcEEE12write_paddedINS5_17padded_int_writerINS5_10int_writerIiNS0_18basic_format_specsIcEEE10bin_writerILi3EEEEEEEvRKSA_OT_	0000009c void fmt::v6::internal::basic_writer<fmt::v6::buffer_range<char> >::write_padded<fmt::v6::internal::basic_writer<fmt::v6::buffer_range<char> >::padded_int_writer<fmt::v6::internal::basic_writer<fmt::v6::buffer_range<char> >::int_writer<int, fmt::v6::basic_format_specs<char> >::bin_writer<3> > >(fmt::v6::basic_format_specs<char> const&, fmt::v6::internal::basic_writer<fmt::v6::buffer_range<char> >::padded_int_writer<fmt::v6::internal::basic_writer<fmt::v6::buffer_range<char> >::int_writer<int, fmt::v6::basic_format_specs<char> >::bin_writer<3> >&&)
00000000  w    F .text._ZN3fmt2v68internal12basic_writerINS0_12buffer_rangeIcEEE10int_writerIiNS0_18basic_format_specsIcEEE6on_octEv	000000d7 fmt::v6::internal::basic_writer<fmt::v6::buffer_range<char> >::int_writer<int, fmt::v6::basic_format_specs<char> >::on_oct()
00000000  w    F .text._ZNK3fmt2v68internal12basic_writerINS0_12buffer_rangeIcEEE17padded_int_writerINS5_10int_writerIjNS0_18basic_format_specsIcEEE10dec_writerEEclIRPcEEvOT_	0000003a void fmt::v6::internal::basic_writer<fmt::v6::buffer_range<char> >::padded_int_writer<fmt::v6::internal::basic_writer<fmt::v6::buffer_range<char> >::int_writer<unsigned int, fmt::v6::basic_format_specs<char> >::dec_writer>::operator()<char*&>(char*&) const
00000000  w    F .text._ZN3fmt2v68internal12basic_writerINS0_12buffer_rangeIcEEE12write_paddedINS5_17padded_int_writerINS5_10int_writerIjNS0_18basic_format_specsIcEEE10dec_writerEEEEEvRKSA_OT_	0000009c void fmt::v6::internal::basic_writer<fmt::v6::buffer_range<char> >::write_padded<fmt::v6::internal::basic_writer<fmt::v6::buffer_range<char> >::padded_int_writer<fmt::v6::internal::basic_writer<fmt::v6::buffer_range<char> >::int_writer<unsigned int, fmt::v6::basic_format_specs<char> >::dec_writer> >(fmt::v6::basic_format_specs<char> const&, fmt::v6::internal::basic_writer<fmt::v6::buffer_range<char> >::padded_int_writer<fmt::v6::internal::basic_writer<fmt::v6::buffer_range<char> >::int_writer<unsigned int, fmt::v6::basic_format_specs<char> >::dec_writer>&&)
00000000  w    F .text._ZN3fmt2v68internal12basic_writerINS0_12buffer_rangeIcEEE10int_writerIjNS0_18basic_format_specsIcEEE6on_decEv	000000b3 fmt::v6::internal::basic_writer<fmt::v6::buffer_range<char> >::int_writer<unsigned int, fmt::v6::basic_format_specs<char> >::on_dec()
00000000  w    F .text._ZNK3fmt2v68internal12basic_writerINS0_12buffer_rangeIcEEE17padded_int_writerINS5_10int_writerIjNS0_18basic_format_specsIcEEE10hex_writerEEclIRPcEEvOT_	0000004c void fmt::v6::internal::basic_writer<fmt::v6::buffer_range<char> >::padded_int_writer<fmt::v6::internal::basic_writer<fmt::v6::buffer_range<char> >::int_writer<unsigned int, fmt::v6::basic_format_specs<char> >::hex_writer>::operator()<char*&>(char*&) const
00000000  w    F .text._ZN3fmt2v68internal12basic_writerINS0_12buffer_rangeIcEEE12write_paddedINS5_17padded_int_writerINS5_10int_writerIjNS0_18basic_format_specsIcEEE10hex_writerEEEEEvRKSA_OT_	0000009c void fmt::v6::internal::basic_writer<fmt::v6::buffer_range<char> >::write_padded<fmt::v6::internal::basic_writer<fmt::v6::buffer_range<char> >::padded_int_writer<fmt::v6::internal::basic_writer<fmt::v6::buffer_range<char> >::int_writer<unsigned int, fmt::v6::basic_format_specs<char> >::hex_writer> >(fmt::v6::basic_format_specs<char> const&, fmt::v6::internal::basic_writer<fmt::v6::buffer_range<char> >::padded_int_writer<fmt::v6::internal::basic_writer<fmt::v6::buffer_range<char> >::int_writer<unsigned int, fmt::v6::basic_format_specs<char> >::hex_writer>&&)
00000000  w    F .text._ZN3fmt2v68internal12basic_writerINS0_12buffer_rangeIcEEE10int_writerIjNS0_18basic_format_specsIcEEE6on_hexEv	000000c8 fmt::v6::internal::basic_writer<fmt::v6::buffer_range<char> >::int_writer<unsigned int, fmt::v6::basic_format_specs<char> >::on_hex()
00000000  w    F .text._ZNK3fmt2v68internal12basic_writerINS0_12buffer_rangeIcEEE17padded_int_writerINS5_10int_writerIjNS0_18basic_format_specsIcEEE10bin_writerILi1EEEEclIRPcEEvOT_	00000045 void fmt::v6::internal::basic_writer<fmt::v6::buffer_range<char> >::padded_int_writer<fmt::v6::internal::basic_writer<fmt::v6::buffer_range<char> >::int_writer<unsigned int, fmt::v6::basic_format_specs<char> >::bin_writer<1> >::operator()<char*&>(char*&) const
00000000  w    F .text._ZN3fmt2v68internal12basic_writerINS0_12buffer_rangeIcEEE12write_paddedINS5_17padded_int_writerINS5_10int_writerIjNS0_18basic_format_specsIcEEE10bin_writerILi1EEEEEEEvRKSA_OT_	0000009c void fmt::v6::internal::basic_writer<fmt::v6::buffer_range<char> >::write_padded<fmt::v6::internal::basic_writer<fmt::v6::buffer_range<char> >::padded_int_writer<fmt::v6::internal::basic_writer<fmt::v6::buffer_range<char> >::int_writer<unsigned int, fmt::v6::basic_format_specs<char> >::bin_writer<1> > >(fmt::v6::basic_format_specs<char> const&, fmt::v6::internal::basic_writer<fmt::v6::buffer_range<char> >::padded_int_writer<fmt::v6::internal::basic_writer<fmt::v6::buffer_range<char> >::int_writer<unsigned int, fmt::v6::basic_format_specs<char> >::bin_writer<1> >&&)
00000000  w    F .text._ZN3fmt2v68internal12basic_writerINS0_12buffer_rangeIcEEE10int_writerIjNS0_18basic_format_specsIcEEE6on_binEv	000000ca fmt::v6::internal::basic_writer<fmt::v6::buffer_range<char> >::int_writer<unsigned int, fmt::v6::basic_format_specs<char> >::on_bin()
00000000  w    F .text._ZNK3fmt2v68internal12basic_writerINS0_12buffer_rangeIcEEE17padded_int_writerINS5_10int_writerIjNS0_18basic_format_specsIcEEE10bin_writerILi3EEEEclIRPcEEvOT_	00000045 void fmt::v6::internal::basic_writer<fmt::v6::buffer_range<char> >::padded_int_writer<fmt::v6::internal::basic_writer<fmt::v6::buffer_range<char> >::int_writer<unsigned int, fmt::v6::basic_format_specs<char> >::bin_writer<3> >::operator()<char*&>(char*&) const
00000000  w    F .text._ZN3fmt2v68internal12basic_writerINS0_12buffer_rangeIcEEE12write_paddedINS5_17padded_int_writerINS5_10int_writerIjNS0_18basic_format_specsIcEEE10bin_writerILi3EEEEEEEvRKSA_OT_	0000009c void fmt::v6::internal::basic_writer<fmt::v6::buffer_range<char> >::write_padded<fmt::v6::internal::basic_writer<fmt::v6::buffer_range<char> >::padded_int_writer<fmt::v6::internal::basic_writer<fmt::v6::buffer_range<char> >::int_writer<unsigned int, fmt::v6::basic_format_specs<char> >::bin_writer<3> > >(fmt::v6::basic_format_specs<char> const&, fmt::v6::internal::basic_writer<fmt::v6::buffer_range<char> >::padded_int_writer<fmt::v6::internal::basic_writer<fmt::v6::buffer_range<char> >::int_writer<unsigned int, fmt::v6::basic_format_specs<char> >::bin_writer<3> >&&)
00000000  w    F .text._ZN3fmt2v68internal12basic_writerINS0_12buffer_rangeIcEEE10int_writerIjNS0_18basic_format_specsIcEEE6on_octEv	000000d7 fmt::v6::internal::basic_writer<fmt::v6::buffer_range<char> >::int_writer<unsigned int, fmt::v6::basic_format_specs<char> >::on_oct()
00000000  w    F .text._ZNK3fmt2v68internal12basic_writerINS0_12buffer_rangeIcEEE17padded_int_writerINS5_10int_writerIxNS0_18basic_format_specsIcEEE10dec_writerEEclIRPcEEvOT_	0000003c void fmt::v6::internal::basic_writer<fmt::v6::buffer_range<char> >::padded_int_writer<fmt::v6::internal::basic_writer<fmt::v6::buffer_range<char> >::int_writer<long long, fmt::v6::basic_format_specs<char> >::dec_writer>::operator()<char*&>(char*&) const
00000000  w    F .text._ZN3fmt2v68internal12basic_writerINS0_12buffer_rangeIcEEE12write_paddedINS5_17padded_int_writerINS5_10int_writerIxNS0_18basic_format_specsIcEEE10dec_writerEEEEEvRKSA_OT_	0000009c void fmt::v6::internal::basic_writer<fmt::v6::buffer_range<char> >::write_padded<fmt::v6::internal::basic_writer<fmt::v6::buffer_range<char> >::padded_int_writer<fmt::v6::internal::basic_writer<fmt::v6::buffer_range<char> >::int_writer<long long, fmt::v6::basic_format_specs<char> >::dec_writer> >(fmt::v6::basic_format_specs<char> const&, fmt::v6::internal::basic_writer<fmt::v6::buffer_range<char> >::padded_int_writer<fmt::v6::internal::basic_writer<fmt::v6::buffer_range<char> >::int_writer<long long, fmt::v6::basic_format_specs<char> >::dec_writer>&&)
00000000  w    F .text._ZN3fmt2v68internal12basic_writerINS0_12buffer_rangeIcEEE10int_writerIxNS0_18basic_format_specsIcEEE6on_decEv	000000d3 fmt::v6::internal::basic_writer<fmt::v6::buffer_range<char> >::int_writer<long long, fmt::v6::basic_format_specs<char> >::on_dec()
00000000  w    F .text._ZNK3fmt2v68internal12basic_writerINS0_12buffer_rangeIcEEE17padded_int_writerINS5_10int_writerIxNS0_18basic_format_specsIcEEE10hex_writerEEclIRPcEEvOT_	0000006b void fmt::v6::internal::basic_writer<fmt::v6::buffer_range<char> >::padded_int_writer<fmt::v6::internal::basic_writer<fmt::v6::buffer_range<char> >::int_writer<long long, fmt::v6::basic_format_specs<char> >::hex_writer>::operator()<char*&>(char*&) const
00000000  w    F .text._ZN3fmt2v68internal12basic_writerINS0_12buffer_rangeIcEEE12write_paddedINS5_17padded_int_writerINS5_10int_writerIxNS0_18basic_format_specsIcEEE10hex_writerEEEEEvRKSA_OT_	0000009c void fmt::v6::internal::basic_writer<fmt::v6::buffer_range<char> >::write_padded<fmt::v6::internal::basic_writer<fmt::v6::buffer_range<char> >::padded_int_writer<fmt::v6::internal::basic_writer<fmt::v6::buffer_range<char> >::int_writer<long long, fmt::v6::basic_format_specs<char> >::hex_writer> >(fmt::v6::basic_format_specs<char> const&, fmt::v6::internal::basic_writer<fmt::v6::buffer_range<char> >::padded_int_writer<fmt::v6::internal::basic_writer<fmt::v6::buffer_range<char> >::int_writer<long long, fmt::v6::basic_format_specs<char> >::hex_writer>&&)
00000000  w    F .text._ZN3fmt2v68internal12basic_writerINS0_12buffer_rangeIcEEE10int_writerIxNS0_18basic_format_specsIcEEE6on_hexEv	000000db fmt::v6::internal::basic_writer<fmt::v6::buffer_range<char> >::int_writer<long long, fmt::v6::basic_format_specs<char> >::on_hex()
00000000  w    F .text._ZNK3fmt2v68internal12basic_writerINS0_12buffer_rangeIcEEE17padded_int_writerINS5_10int_writerIxNS0_18basic_format_specsIcEEE10bin_writerILi1EEEEclIRPcEEvOT_	00000055 void fmt::v6::internal::basic_writer<fmt::v6::buffer_range<char> >::padded_int_writer<fmt::v6::internal::basic_writer<fmt::v6::buffer_range<char> >::int_writer<long long, fmt::v6::basic_format_specs<char> >::bin_writer<1> >::operator()<char*&>(char*&) const
00000000  w    F .text._ZN3fmt2v68internal12basic_writerINS0_12buffer_rangeIcEEE12write_paddedINS5_17padded_int_writerINS5_10int_writerIxNS0_18basic_format_specsIcEEE10bin_writerILi1EEEEEEEvRKSA_OT_	0000009c void fmt::v6::internal::basic_writer<fmt::v6::buffer_range<char> >::write_padded<fmt::v6::internal::basic_writer<fmt::v6::buffer_range<char> >::padded_int_writer<fmt::v6::internal::basic_writer<fmt::v6::buffer_range<char> >::int_writer<long long, fmt::v6::basic_format_specs<char> >::bin_writer<1> > >(fmt::v6::basic_format_specs<char> const&, fmt::v6::internal::basic_writer<fmt::v6::buffer_range<char> >::padded_int_writer<fmt::v6::internal::basic_writer<fmt::v6::buffer_range<char> >::int_writer<long long, fmt::v6::basic_format_specs<char> >::bin_writer<1> >&&)
00000000  w    F .text._ZN3fmt2v68internal12basic_writerINS0_12buffer_rangeIcEEE10int_writerIxNS0_18basic_format_specsIcEEE6on_binEv	000000f7 fmt::v6::internal::basic_writer<fmt::v6::buffer_range<char> >::int_writer<long long, fmt::v6::basic_format_specs<char> >::on_bin()
00000000  w    F .text._ZNK3fmt2v68internal12basic_writerINS0_12buffer_rangeIcEEE17padded_int_writerINS5_10int_writerIxNS0_18basic_format_specsIcEEE10bin_writerILi3EEEEclIRPcEEvOT_	00000055 void fmt::v6::internal::basic_writer<fmt::v6::buffer_range<char> >::padded_int_writer<fmt::v6::internal::basic_writer<fmt::v6::buffer_range<char> >::int_writer<long long, fmt::v6::basic_format_specs<char> >::bin_writer<3> >::operator()<char*&>(char*&) const
00000000  w    F .text._ZN3fmt2v68internal12basic_writerINS0_12buffer_rangeIcEEE12write_paddedINS5_17padded_int_writerINS5_10int_writerIxNS0_18basic_format_specsIcEEE10bin_writerILi3EEEEEEEvRKSA_OT_	0000009a void fmt::v6::internal::basic_writer<fmt::v6::buffer_range<char> >::write_padded<fmt::v6::internal::basic_writer<fmt::v6::buffer_range<char> >::padded_int_writer<fmt::v6::internal::basic_writer<fmt::v6::buffer_range<char> >::int_writer<long long, fmt::v6::basic_format_specs<char> >::bin_writer<3> > >(fmt::v6::basic_format_specs<char> const&, fmt::v6::internal::basic_writer<fmt::v6::buffer_range<char> >::padded_int_writer<fmt::v6::internal::basic_writer<fmt::v6::buffer_range<char> >::int_writer<long long, fmt::v6::basic_format_specs<char> >::bin_writer<3> >&&)
00000000  w    F .text._ZN3fmt2v68internal12basic_writerINS0_12buffer_rangeIcEEE10int_writerIxNS0_18basic_format_specsIcEEE6on_octEv	000000fb fmt::v6::internal::basic_writer<fmt::v6::buffer_range<char> >::int_writer<long long, fmt::v6::basic_format_specs<char> >::on_oct()
00000000  w    F .text._ZNK3fmt2v68internal12basic_writerINS0_12buffer_rangeIcEEE17padded_int_writerINS5_10int_writerIyNS0_18basic_format_specsIcEEE10dec_writerEEclIRPcEEvOT_	0000003c void fmt::v6::internal::basic_writer<fmt::v6::buffer_range<char> >::padded_int_writer<fmt::v6::internal::basic_writer<fmt::v6::buffer_range<char> >::int_writer<unsigned long long, fmt::v6::basic_format_specs<char> >::dec_writer>::operator()<char*&>(char*&) const
00000000  w    F .text._ZN3fmt2v68internal12basic_writerINS0_12buffer_rangeIcEEE12write_paddedINS5_17padded_int_writerINS5_10int_writerIyNS0_18basic_format_specsIcEEE10dec_writerEEEEEvRKSA_OT_	0000009c void fmt::v6::internal::basic_writer<fmt::v6::buffer_range<char> >::write_padded<fmt::v6::internal::basic_writer<fmt::v6::buffer_range<char> >::padded_int_writer<fmt::v6::internal::basic_writer<fmt::v6::buffer_range<char> >::int_writer<unsigned long long, fmt::v6::basic_format_specs<char> >::dec_writer> >(fmt::v6::basic_format_specs<char> const&, fmt::v6::internal::basic_writer<fmt::v6::buffer_range<char> >::padded_int_writer<fmt::v6::internal::basic_writer<fmt::v6::buffer_range<char> >::int_writer<unsigned long long, fmt::v6::basic_format_specs<char> >::dec_writer>&&)
00000000  w    F .text._ZN3fmt2v68internal12basic_writerINS0_12buffer_rangeIcEEE10int_writerIyNS0_18basic_format_specsIcEEE6on_decEv	000000d3 fmt::v6::internal::basic_writer<fmt::v6::buffer_range<char> >::int_writer<unsigned long long, fmt::v6::basic_format_specs<char> >::on_dec()
00000000  w    F .text._ZNK3fmt2v68internal12basic_writerINS0_12buffer_rangeIcEEE17padded_int_writerINS5_10int_writerIyNS0_18basic_format_specsIcEEE10hex_writerEEclIRPcEEvOT_	0000006b void fmt::v6::internal::basic_writer<fmt::v6::buffer_range<char> >::padded_int_writer<fmt::v6::internal::basic_writer<fmt::v6::buffer_range<char> >::int_writer<unsigned long long, fmt::v6::basic_format_specs<char> >::hex_writer>::operator()<char*&>(char*&) const
00000000  w    F .text._ZN3fmt2v68internal12basic_writerINS0_12buffer_rangeIcEEE12write_paddedINS5_17padded_int_writerINS5_10int_writerIyNS0_18basic_format_specsIcEEE10hex_writerEEEEEvRKSA_OT_	0000009c void fmt::v6::internal::basic_writer<fmt::v6::buffer_range<char> >::write_padded<fmt::v6::internal::basic_writer<fmt::v6::buffer_range<char> >::padded_int_writer<fmt::v6::internal::basic_writer<fmt::v6::buffer_range<char> >::int_writer<unsigned long long, fmt::v6::basic_format_specs<char> >::hex_writer> >(fmt::v6::basic_format_specs<char> const&, fmt::v6::internal::basic_writer<fmt::v6::buffer_range<char> >::padded_int_writer<fmt::v6::internal::basic_writer<fmt::v6::buffer_range<char> >::int_writer<unsigned long long, fmt::v6::basic_format_specs<char> >::hex_writer>&&)
00000000  w    F .text._ZN3fmt2v68internal12basic_writerINS0_12buffer_rangeIcEEE10int_writerIyNS0_18basic_format_specsIcEEE6on_hexEv	000000db fmt::v6::internal::basic_writer<fmt::v6::buffer_range<char> >::int_writer<unsigned long long, fmt::v6::basic_format_specs<char> >::on_hex()
00000000  w    F .text._ZNK3fmt2v68internal12basic_writerINS0_12buffer_rangeIcEEE17padded_int_writerINS5_10int_writerIyNS0_18basic_format_specsIcEEE10bin_writerILi1EEEEclIRPcEEvOT_	00000055 void fmt::v6::internal::basic_writer<fmt::v6::buffer_range<char> >::padded_int_writer<fmt::v6::internal::basic_writer<fmt::v6::buffer_range<char> >::int_writer<unsigned long long, fmt::v6::basic_format_specs<char> >::bin_writer<1> >::operator()<char*&>(char*&) const
00000000  w    F .text._ZN3fmt2v68internal12basic_writerINS0_12buffer_rangeIcEEE12write_paddedINS5_17padded_int_writerINS5_10int_writerIyNS0_18basic_format_specsIcEEE10bin_writerILi1EEEEEEEvRKSA_OT_	0000009c void fmt::v6::internal::basic_writer<fmt::v6::buffer_range<char> >::write_padded<fmt::v6::internal::basic_writer<fmt::v6::buffer_range<char> >::padded_int_writer<fmt::v6::internal::basic_writer<fmt::v6::buffer_range<char> >::int_writer<unsigned long long, fmt::v6::basic_format_specs<char> >::bin_writer<1> > >(fmt::v6::basic_format_specs<char> const&, fmt::v6::internal::basic_writer<fmt::v6::buffer_range<char> >::padded_int_writer<fmt::v6::internal::basic_writer<fmt::v6::buffer_range<char> >::int_writer<unsigned long long, fmt::v6::basic_format_specs<char> >::bin_writer<1> >&&)
00000000  w    F .text._ZN3fmt2v68internal12basic_writerINS0_12buffer_rangeIcEEE10int_writerIyNS0_18basic_format_specsIcEEE6on_binEv	000000f7 fmt::v6::internal::basic_writer<fmt::v6::buffer_range<char> >::int_writer<unsigned long long, fmt::v6::basic_format_specs<char> >::on_bin()
00000000  w    F .text._ZNK3fmt2v68internal12basic_writerINS0_12buffer_rangeIcEEE17padded_int_writerINS5_10int_writerIyNS0_18basic_format_specsIcEEE10bin_writerILi3EEEEclIRPcEEvOT_	00000055 void fmt::v6::internal::basic_writer<fmt::v6::buffer_range<char> >::padded_int_writer<fmt::v6::internal::basic_writer<fmt::v6::buffer_range<char> >::int_writer<unsigned long long, fmt::v6::basic_format_specs<char> >::bin_writer<3> >::operator()<char*&>(char*&) const
00000000  w    F .text._ZN3fmt2v68internal12basic_writerINS0_12buffer_rangeIcEEE12write_paddedINS5_17padded_int_writerINS5_10int_writerIyNS0_18basic_format_specsIcEEE10bin_writerILi3EEEEEEEvRKSA_OT_	0000009c void fmt::v6::internal::basic_writer<fmt::v6::buffer_range<char> >::write_padded<fmt::v6::internal::basic_writer<fmt::v6::buffer_range<char> >::padded_int_writer<fmt::v6::internal::basic_writer<fmt::v6::buffer_range<char> >::int_writer<unsigned long long, fmt::v6::basic_format_specs<char> >::bin_writer<3> > >(fmt::v6::basic_format_specs<char> const&, fmt::v6::internal::basic_writer<fmt::v6::buffer_range<char> >::padded_int_writer<fmt::v6::internal::basic_writer<fmt::v6::buffer_range<char> >::int_writer<unsigned long long, fmt::v6::basic_format_specs<char> >::bin_writer<3> >&&)
00000000  w    F .text._ZN3fmt2v68internal12basic_writerINS0_12buffer_rangeIcEEE10int_writerIyNS0_18basic_format_specsIcEEE6on_octEv	000000fb fmt::v6::internal::basic_writer<fmt::v6::buffer_range<char> >::int_writer<unsigned long long, fmt::v6::basic_format_specs<char> >::on_oct()
00000000  w    F .text._ZZNK3fmt2v68internal12basic_writerINS0_12buffer_rangeIcEEE10int_writerIiNS0_18basic_format_specsIcEEE10num_writerclIRPcEEvOT_ENKUlSD_E_clESD_	00000060 void fmt::v6::internal::basic_writer<fmt::v6::buffer_range<char> >::int_writer<int, fmt::v6::basic_format_specs<char> >::num_writer::operator()<char*&>(char*&) const::{lambda(char*&)#1}::operator()(char*&) const
00000000  w    F .text._ZNK3fmt2v68internal12basic_writerINS0_12buffer_rangeIcEEE10int_writerIiNS0_18basic_format_specsIcEEE10num_writerclIRPcEEvOT_	00000108 void fmt::v6::internal::basic_writer<fmt::v6::buffer_range<char> >::int_writer<int, fmt::v6::basic_format_specs<char> >::num_writer::operator()<char*&>(char*&) const
00000000  w    F .text._ZNK3fmt2v68internal12basic_writerINS0_12buffer_rangeIcEEE17padded_int_writerINS5_10int_writerIiNS0_18basic_format_specsIcEEE10num_writerEEclIRPcEEvOT_	0000003a void fmt::v6::internal::basic_writer<fmt::v6::buffer_range<char> >::padded_int_writer<fmt::v6::internal::basic_writer<fmt::v6::buffer_range<char> >::int_writer<int, fmt::v6::basic_format_specs<char> >::num_writer>::operator()<char*&>(char*&) const
00000000  w    F .text._ZN3fmt2v68internal12basic_writerINS0_12buffer_rangeIcEEE12write_paddedINS5_17padded_int_writerINS5_10int_writerIiNS0_18basic_format_specsIcEEE10num_writerEEEEEvRKSA_OT_	0000009c void fmt::v6::internal::basic_writer<fmt::v6::buffer_range<char> >::write_padded<fmt::v6::internal::basic_writer<fmt::v6::buffer_range<char> >::padded_int_writer<fmt::v6::internal::basic_writer<fmt::v6::buffer_range<char> >::int_writer<int, fmt::v6::basic_format_specs<char> >::num_writer> >(fmt::v6::basic_format_specs<char> const&, fmt::v6::internal::basic_writer<fmt::v6::buffer_range<char> >::padded_int_writer<fmt::v6::internal::basic_writer<fmt::v6::buffer_range<char> >::int_writer<int, fmt::v6::basic_format_specs<char> >::num_writer>&&)
00000000  w    F .text._ZN3fmt2v68internal12basic_writerINS0_12buffer_rangeIcEEE10int_writerIiNS0_18basic_format_specsIcEEE6on_numEv	00000182 fmt::v6::internal::basic_writer<fmt::v6::buffer_range<char> >::int_writer<int, fmt::v6::basic_format_specs<char> >::on_num()
00000000         *UND*	00000000 std::__cxx11::basic_string<char, std::char_traits<char>, std::allocator<char> > fmt::v6::internal::grouping_impl<char>(fmt::v6::internal::locale_ref)
00000000         *UND*	00000000 char fmt::v6::internal::thousands_sep_impl<char>(fmt::v6::internal::locale_ref)
00000000         *UND*	00000000 std::__cxx11::basic_string<char, std::char_traits<char>, std::allocator<char> >::_M_dispose()
00000000  w    F .text._ZN3fmt2v68internal20handle_int_type_specINS1_12basic_writerINS0_12buffer_rangeIcEEE10int_writerIiNS0_18basic_format_specsIcEEEEEEvcOT_	0000007c void fmt::v6::internal::handle_int_type_spec<fmt::v6::internal::basic_writer<fmt::v6::buffer_range<char> >::int_writer<int, fmt::v6::basic_format_specs<char> > >(char, fmt::v6::internal::basic_writer<fmt::v6::buffer_range<char> >::int_writer<int, fmt::v6::basic_format_specs<char> >&&)
00000000  w    F .text._ZN3fmt2v68internal18arg_formatter_baseINS0_12buffer_rangeIcEENS1_13error_handlerEEclIiLi0EEESt20back_insert_iteratorINS1_6bufferIcEEET_	00000088 std::back_insert_iterator<fmt::v6::internal::buffer<char> > fmt::v6::internal::arg_formatter_base<fmt::v6::buffer_range<char>, fmt::v6::internal::error_handler>::operator()<int, 0>(int)
00000000  w    F .text._ZZNK3fmt2v68internal12basic_writerINS0_12buffer_rangeIcEEE10int_writerIjNS0_18basic_format_specsIcEEE10num_writerclIRPcEEvOT_ENKUlSD_E_clESD_	00000062 void fmt::v6::internal::basic_writer<fmt::v6::buffer_range<char> >::int_writer<unsigned int, fmt::v6::basic_format_specs<char> >::num_writer::operator()<char*&>(char*&) const::{lambda(char*&)#1}::operator()(char*&) const
00000000  w    F .text._ZNK3fmt2v68internal12basic_writerINS0_12buffer_rangeIcEEE10int_writerIjNS0_18basic_format_specsIcEEE10num_writerclIRPcEEvOT_	00000108 void fmt::v6::internal::basic_writer<fmt::v6::buffer_range<char> >::int_writer<unsigned int, fmt::v6::basic_format_specs<char> >::num_writer::operator()<char*&>(char*&) const
00000000  w    F .text._ZNK3fmt2v68internal12basic_writerINS0_12buffer_rangeIcEEE17padded_int_writerINS5_10int_writerIjNS0_18basic_format_specsIcEEE10num_writerEEclIRPcEEvOT_	0000003a void fmt::v6::internal::basic_writer<fmt::v6::buffer_range<char> >::padded_int_writer<fmt::v6::internal::basic_writer<fmt::v6::buffer_range<char> >::int_writer<unsigned int, fmt::v6::basic_format_specs<char> >::num_writer>::operator()<char*&>(char*&) const
00000000  w    F .text._ZN3fmt2v68internal12basic_writerINS0_12buffer_rangeIcEEE12write_paddedINS5_17padded_int_writerINS5_10int_writerIjNS0_18basic_format_specsIcEEE10num_writerEEEEEvRKSA_OT_	0000009c void fmt::v6::internal::basic_writer<fmt::v6::buffer_range<char> >::write_padded<fmt::v6::internal::basic_writer<fmt::v6::buffer_range<char> >::padded_int_writer<fmt::v6::internal::basic_writer<fmt::v6::buffer_range<char> >::int_writer<unsigned int, fmt::v6::basic_format_specs<char> >::num_writer> >(fmt::v6::basic_format_specs<char> const&, fmt::v6::internal::basic_writer<fmt::v6::buffer_range<char> >::padded_int_writer<fmt::v6::internal::basic_writer<fmt::v6::buffer_range<char> >::int_writer<unsigned int, fmt::v6::basic_format_specs<char> >::num_writer>&&)
00000000  w    F .text._ZN3fmt2v68internal12basic_writerINS0_12buffer_rangeIcEEE10int_writerIjNS0_18basic_format_specsIcEEE6on_numEv	0000017e fmt::v6::internal::basic_writer<fmt::v6::buffer_range<char> >::int_writer<unsigned int, fmt::v6::basic_format_specs<char> >::on_num()
00000000  w    F .text._ZN3fmt2v68internal20handle_int_type_specINS1_12basic_writerINS0_12buffer_rangeIcEEE10int_writerIjNS0_18basic_format_specsIcEEEEEEvcOT_	0000007c void fmt::v6::internal::handle_int_type_spec<fmt::v6::internal::basic_writer<fmt::v6::buffer_range<char> >::int_writer<unsigned int, fmt::v6::basic_format_specs<char> > >(char, fmt::v6::internal::basic_writer<fmt::v6::buffer_range<char> >::int_writer<unsigned int, fmt::v6::basic_format_specs<char> >&&)
00000000  w    F .text._ZZNK3fmt2v68internal12basic_writerINS0_12buffer_rangeIcEEE10int_writerIxNS0_18basic_format_specsIcEEE10num_writerclIRPcEEvOT_ENKUlSD_E_clESD_	00000062 void fmt::v6::internal::basic_writer<fmt::v6::buffer_range<char> >::int_writer<long long, fmt::v6::basic_format_specs<char> >::num_writer::operator()<char*&>(char*&) const::{lambda(char*&)#1}::operator()(char*&) const
00000000  w    F .text._ZNK3fmt2v68internal12basic_writerINS0_12buffer_rangeIcEEE10int_writerIxNS0_18basic_format_specsIcEEE10num_writerclIRPcEEvOT_	00000124 void fmt::v6::internal::basic_writer<fmt::v6::buffer_range<char> >::int_writer<long long, fmt::v6::basic_format_specs<char> >::num_writer::operator()<char*&>(char*&) const
00000000  w    F .text._ZNK3fmt2v68internal12basic_writerINS0_12buffer_rangeIcEEE17padded_int_writerINS5_10int_writerIxNS0_18basic_format_specsIcEEE10num_writerEEclIRPcEEvOT_	0000003a void fmt::v6::internal::basic_writer<fmt::v6::buffer_range<char> >::padded_int_writer<fmt::v6::internal::basic_writer<fmt::v6::buffer_range<char> >::int_writer<long long, fmt::v6::basic_format_specs<char> >::num_writer>::operator()<char*&>(char*&) const
00000000  w    F .text._ZN3fmt2v68internal12basic_writerINS0_12buffer_rangeIcEEE12write_paddedINS5_17padded_int_writerINS5_10int_writerIxNS0_18basic_format_specsIcEEE10num_writerEEEEEvRKSA_OT_	0000009c void fmt::v6::internal::basic_writer<fmt::v6::buffer_range<char> >::write_padded<fmt::v6::internal::basic_writer<fmt::v6::buffer_range<char> >::padded_int_writer<fmt::v6::internal::basic_writer<fmt::v6::buffer_range<char> >::int_writer<long long, fmt::v6::basic_format_specs<char> >::num_writer> >(fmt::v6::basic_format_specs<char> const&, fmt::v6::internal::basic_writer<fmt::v6::buffer_range<char> >::padded_int_writer<fmt::v6::internal::basic_writer<fmt::v6::buffer_range<char> >::int_writer<long long, fmt::v6::basic_format_specs<char> >::num_writer>&&)
00000000  w    F .text._ZN3fmt2v68internal12basic_writerINS0_12buffer_rangeIcEEE10int_writerIxNS0_18basic_format_specsIcEEE6on_numEv	00000182 fmt::v6::internal::basic_writer<fmt::v6::buffer_range<char> >::int_writer<long long, fmt::v6::basic_format_specs<char> >::on_num()
00000000  w    F .text._ZN3fmt2v68internal20handle_int_type_specINS1_12basic_writerINS0_12buffer_rangeIcEEE10int_writerIxNS0_18basic_format_specsIcEEEEEEvcOT_	0000007c void fmt::v6::internal::handle_int_type_spec<fmt::v6::internal::basic_writer<fmt::v6::buffer_range<char> >::int_writer<long long, fmt::v6::basic_format_specs<char> > >(char, fmt::v6::internal::basic_writer<fmt::v6::buffer_range<char> >::int_writer<long long, fmt::v6::basic_format_specs<char> >&&)
00000000  w    F .text._ZN3fmt2v68internal18arg_formatter_baseINS0_12buffer_rangeIcEENS1_13error_handlerEEclIxLi0EEESt20back_insert_iteratorINS1_6bufferIcEEET_	000000a8 std::back_insert_iterator<fmt::v6::internal::buffer<char> > fmt::v6::internal::arg_formatter_base<fmt::v6::buffer_range<char>, fmt::v6::internal::error_handler>::operator()<long long, 0>(long long)
00000000  w    F .text._ZZNK3fmt2v68internal12basic_writerINS0_12buffer_rangeIcEEE10int_writerIyNS0_18basic_format_specsIcEEE10num_writerclIRPcEEvOT_ENKUlSD_E_clESD_	00000062 void fmt::v6::internal::basic_writer<fmt::v6::buffer_range<char> >::int_writer<unsigned long long, fmt::v6::basic_format_specs<char> >::num_writer::operator()<char*&>(char*&) const::{lambda(char*&)#1}::operator()(char*&) const
00000000  w    F .text._ZNK3fmt2v68internal12basic_writerINS0_12buffer_rangeIcEEE10int_writerIyNS0_18basic_format_specsIcEEE10num_writerclIRPcEEvOT_	00000124 void fmt::v6::internal::basic_writer<fmt::v6::buffer_range<char> >::int_writer<unsigned long long, fmt::v6::basic_format_specs<char> >::num_writer::operator()<char*&>(char*&) const
00000000  w    F .text._ZNK3fmt2v68internal12basic_writerINS0_12buffer_rangeIcEEE17padded_int_writerINS5_10int_writerIyNS0_18basic_format_specsIcEEE10num_writerEEclIRPcEEvOT_	0000003a void fmt::v6::internal::basic_writer<fmt::v6::buffer_range<char> >::padded_int_writer<fmt::v6::internal::basic_writer<fmt::v6::buffer_range<char> >::int_writer<unsigned long long, fmt::v6::basic_format_specs<char> >::num_writer>::operator()<char*&>(char*&) const
00000000  w    F .text._ZN3fmt2v68internal12basic_writerINS0_12buffer_rangeIcEEE12write_paddedINS5_17padded_int_writerINS5_10int_writerIyNS0_18basic_format_specsIcEEE10num_writerEEEEEvRKSA_OT_	0000009a void fmt::v6::internal::basic_writer<fmt::v6::buffer_range<char> >::write_padded<fmt::v6::internal::basic_writer<fmt::v6::buffer_range<char> >::padded_int_writer<fmt::v6::internal::basic_writer<fmt::v6::buffer_range<char> >::int_writer<unsigned long long, fmt::v6::basic_format_specs<char> >::num_writer> >(fmt::v6::basic_format_specs<char> const&, fmt::v6::internal::basic_writer<fmt::v6::buffer_range<char> >::padded_int_writer<fmt::v6::internal::basic_writer<fmt::v6::buffer_range<char> >::int_writer<unsigned long long, fmt::v6::basic_format_specs<char> >::num_writer>&&)
00000000  w    F .text._ZN3fmt2v68internal12basic_writerINS0_12buffer_rangeIcEEE10int_writerIyNS0_18basic_format_specsIcEEE6on_numEv	00000182 fmt::v6::internal::basic_writer<fmt::v6::buffer_range<char> >::int_writer<unsigned long long, fmt::v6::basic_format_specs<char> >::on_num()
00000000  w    F .text._ZN3fmt2v68internal20handle_int_type_specINS1_12basic_writerINS0_12buffer_rangeIcEEE10int_writerIyNS0_18basic_format_specsIcEEEEEEvcOT_	0000007c void fmt::v6::internal::handle_int_type_spec<fmt::v6::internal::basic_writer<fmt::v6::buffer_range<char> >::int_writer<unsigned long long, fmt::v6::basic_format_specs<char> > >(char, fmt::v6::internal::basic_writer<fmt::v6::buffer_range<char> >::int_writer<unsigned long long, fmt::v6::basic_format_specs<char> >&&)
00000000  w    F .text._ZNK3fmt2v68internal12basic_writerINS0_12buffer_rangeIcEEE17padded_int_writerINS5_10int_writerIcNS0_18basic_format_specsIcEEE10dec_writerEEclIRPcEEvOT_	0000003a void fmt::v6::internal::basic_writer<fmt::v6::buffer_range<char> >::padded_int_writer<fmt::v6::internal::basic_writer<fmt::v6::buffer_range<char> >::int_writer<char, fmt::v6::basic_format_specs<char> >::dec_writer>::operator()<char*&>(char*&) const
00000000  w    F .text._ZN3fmt2v68internal12basic_writerINS0_12buffer_rangeIcEEE12write_paddedINS5_17padded_int_writerINS5_10int_writerIcNS0_18basic_format_specsIcEEE10dec_writerEEEEEvRKSA_OT_	0000009c void fmt::v6::internal::basic_writer<fmt::v6::buffer_range<char> >::write_padded<fmt::v6::internal::basic_writer<fmt::v6::buffer_range<char> >::padded_int_writer<fmt::v6::internal::basic_writer<fmt::v6::buffer_range<char> >::int_writer<char, fmt::v6::basic_format_specs<char> >::dec_writer> >(fmt::v6::basic_format_specs<char> const&, fmt::v6::internal::basic_writer<fmt::v6::buffer_range<char> >::padded_int_writer<fmt::v6::internal::basic_writer<fmt::v6::buffer_range<char> >::int_writer<char, fmt::v6::basic_format_specs<char> >::dec_writer>&&)
00000000  w    F .text._ZN3fmt2v68internal12basic_writerINS0_12buffer_rangeIcEEE10int_writerIcNS0_18basic_format_specsIcEEE6on_decEv	000000b3 fmt::v6::internal::basic_writer<fmt::v6::buffer_range<char> >::int_writer<char, fmt::v6::basic_format_specs<char> >::on_dec()
00000000  w    F .text._ZNK3fmt2v68internal12basic_writerINS0_12buffer_rangeIcEEE17padded_int_writerINS5_10int_writerIcNS0_18basic_format_specsIcEEE10hex_writerEEclIRPcEEvOT_	0000004c void fmt::v6::internal::basic_writer<fmt::v6::buffer_range<char> >::padded_int_writer<fmt::v6::internal::basic_writer<fmt::v6::buffer_range<char> >::int_writer<char, fmt::v6::basic_format_specs<char> >::hex_writer>::operator()<char*&>(char*&) const
00000000  w    F .text._ZN3fmt2v68internal12basic_writerINS0_12buffer_rangeIcEEE12write_paddedINS5_17padded_int_writerINS5_10int_writerIcNS0_18basic_format_specsIcEEE10hex_writerEEEEEvRKSA_OT_	0000009c void fmt::v6::internal::basic_writer<fmt::v6::buffer_range<char> >::write_padded<fmt::v6::internal::basic_writer<fmt::v6::buffer_range<char> >::padded_int_writer<fmt::v6::internal::basic_writer<fmt::v6::buffer_range<char> >::int_writer<char, fmt::v6::basic_format_specs<char> >::hex_writer> >(fmt::v6::basic_format_specs<char> const&, fmt::v6::internal::basic_writer<fmt::v6::buffer_range<char> >::padded_int_writer<fmt::v6::internal::basic_writer<fmt::v6::buffer_range<char> >::int_writer<char, fmt::v6::basic_format_specs<char> >::hex_writer>&&)
00000000  w    F .text._ZN3fmt2v68internal12basic_writerINS0_12buffer_rangeIcEEE10int_writerIcNS0_18basic_format_specsIcEEE6on_hexEv	000000c8 fmt::v6::internal::basic_writer<fmt::v6::buffer_range<char> >::int_writer<char, fmt::v6::basic_format_specs<char> >::on_hex()
00000000  w    F .text._ZNK3fmt2v68internal12basic_writerINS0_12buffer_rangeIcEEE17padded_int_writerINS5_10int_writerIcNS0_18basic_format_specsIcEEE10bin_writerILi1EEEEclIRPcEEvOT_	00000045 void fmt::v6::internal::basic_writer<fmt::v6::buffer_range<char> >::padded_int_writer<fmt::v6::internal::basic_writer<fmt::v6::buffer_range<char> >::int_writer<char, fmt::v6::basic_format_specs<char> >::bin_writer<1> >::operator()<char*&>(char*&) const
00000000  w    F .text._ZN3fmt2v68internal12basic_writerINS0_12buffer_rangeIcEEE12write_paddedINS5_17padded_int_writerINS5_10int_writerIcNS0_18basic_format_specsIcEEE10bin_writerILi1EEEEEEEvRKSA_OT_	0000009c void fmt::v6::internal::basic_writer<fmt::v6::buffer_range<char> >::write_padded<fmt::v6::internal::basic_writer<fmt::v6::buffer_range<char> >::padded_int_writer<fmt::v6::internal::basic_writer<fmt::v6::buffer_range<char> >::int_writer<char, fmt::v6::basic_format_specs<char> >::bin_writer<1> > >(fmt::v6::basic_format_specs<char> const&, fmt::v6::internal::basic_writer<fmt::v6::buffer_range<char> >::padded_int_writer<fmt::v6::internal::basic_writer<fmt::v6::buffer_range<char> >::int_writer<char, fmt::v6::basic_format_specs<char> >::bin_writer<1> >&&)
00000000  w    F .text._ZN3fmt2v68internal12basic_writerINS0_12buffer_rangeIcEEE10int_writerIcNS0_18basic_format_specsIcEEE6on_binEv	000000ca fmt::v6::internal::basic_writer<fmt::v6::buffer_range<char> >::int_writer<char, fmt::v6::basic_format_specs<char> >::on_bin()
00000000  w    F .text._ZNK3fmt2v68internal12basic_writerINS0_12buffer_rangeIcEEE17padded_int_writerINS5_10int_writerIcNS0_18basic_format_specsIcEEE10bin_writerILi3EEEEclIRPcEEvOT_	00000045 void fmt::v6::internal::basic_writer<fmt::v6::buffer_range<char> >::padded_int_writer<fmt::v6::internal::basic_writer<fmt::v6::buffer_range<char> >::int_writer<char, fmt::v6::basic_format_specs<char> >::bin_writer<3> >::operator()<char*&>(char*&) const
00000000  w    F .text._ZN3fmt2v68internal12basic_writerINS0_12buffer_rangeIcEEE12write_paddedINS5_17padded_int_writerINS5_10int_writerIcNS0_18basic_format_specsIcEEE10bin_writerILi3EEEEEEEvRKSA_OT_	0000009c void fmt::v6::internal::basic_writer<fmt::v6::buffer_range<char> >::write_padded<fmt::v6::internal::basic_writer<fmt::v6::buffer_range<char> >::padded_int_writer<fmt::v6::internal::basic_writer<fmt::v6::buffer_range<char> >::int_writer<char, fmt::v6::basic_format_specs<char> >::bin_writer<3> > >(fmt::v6::basic_format_specs<char> const&, fmt::v6::internal::basic_writer<fmt::v6::buffer_range<char> >::padded_int_writer<fmt::v6::internal::basic_writer<fmt::v6::buffer_range<char> >::int_writer<char, fmt::v6::basic_format_specs<char> >::bin_writer<3> >&&)
00000000  w    F .text._ZN3fmt2v68internal12basic_writerINS0_12buffer_rangeIcEEE10int_writerIcNS0_18basic_format_specsIcEEE6on_octEv	000000d7 fmt::v6::internal::basic_writer<fmt::v6::buffer_range<char> >::int_writer<char, fmt::v6::basic_format_specs<char> >::on_oct()
00000000  w    F .text._ZZNK3fmt2v68internal12basic_writerINS0_12buffer_rangeIcEEE10int_writerIcNS0_18basic_format_specsIcEEE10num_writerclIRPcEEvOT_ENKUlSD_E_clESD_	00000062 void fmt::v6::internal::basic_writer<fmt::v6::buffer_range<char> >::int_writer<char, fmt::v6::basic_format_specs<char> >::num_writer::operator()<char*&>(char*&) const::{lambda(char*&)#1}::operator()(char*&) const
00000000  w    F .text._ZNK3fmt2v68internal12basic_writerINS0_12buffer_rangeIcEEE10int_writerIcNS0_18basic_format_specsIcEEE10num_writerclIRPcEEvOT_	00000108 void fmt::v6::internal::basic_writer<fmt::v6::buffer_range<char> >::int_writer<char, fmt::v6::basic_format_specs<char> >::num_writer::operator()<char*&>(char*&) const
00000000  w    F .text._ZNK3fmt2v68internal12basic_writerINS0_12buffer_rangeIcEEE17padded_int_writerINS5_10int_writerIcNS0_18basic_format_specsIcEEE10num_writerEEclIRPcEEvOT_	0000003a void fmt::v6::internal::basic_writer<fmt::v6::buffer_range<char> >::padded_int_writer<fmt::v6::internal::basic_writer<fmt::v6::buffer_range<char> >::int_writer<char, fmt::v6::basic_format_specs<char> >::num_writer>::operator()<char*&>(char*&) const
00000000  w    F .text._ZN3fmt2v68internal12basic_writerINS0_12buffer_rangeIcEEE12write_paddedINS5_17padded_int_writerINS5_10int_writerIcNS0_18basic_format_specsIcEEE10num_writerEEEEEvRKSA_OT_	0000009c void fmt::v6::internal::basic_writer<fmt::v6::buffer_range<char> >::write_padded<fmt::v6::internal::basic_writer<fmt::v6::buffer_range<char> >::padded_int_writer<fmt::v6::internal::basic_writer<fmt::v6::buffer_range<char> >::int_writer<char, fmt::v6::basic_format_specs<char> >::num_writer> >(fmt::v6::basic_format_specs<char> const&, fmt::v6::internal::basic_writer<fmt::v6::buffer_range<char> >::padded_int_writer<fmt::v6::internal::basic_writer<fmt::v6::buffer_range<char> >::int_writer<char, fmt::v6::basic_format_specs<char> >::num_writer>&&)
00000000  w    F .text._ZN3fmt2v68internal12basic_writerINS0_12buffer_rangeIcEEE10int_writerIcNS0_18basic_format_specsIcEEE6on_numEv	00000182 fmt::v6::internal::basic_writer<fmt::v6::buffer_range<char> >::int_writer<char, fmt::v6::basic_format_specs<char> >::on_num()
00000000  w    F .text._ZN3fmt2v68internal20handle_int_type_specINS1_12basic_writerINS0_12buffer_rangeIcEEE10int_writerIcNS0_18basic_format_specsIcEEEEEEvcOT_	0000007c void fmt::v6::internal::handle_int_type_spec<fmt::v6::internal::basic_writer<fmt::v6::buffer_range<char> >::int_writer<char, fmt::v6::basic_format_specs<char> > >(char, fmt::v6::internal::basic_writer<fmt::v6::buffer_range<char> >::int_writer<char, fmt::v6::basic_format_specs<char> >&&)
00000000  w    F .text._ZN3fmt2v68internal18arg_formatter_baseINS0_12buffer_rangeIcEENS1_13error_handlerEEclEc	00000080 fmt::v6::internal::arg_formatter_base<fmt::v6::buffer_range<char>, fmt::v6::internal::error_handler>::operator()(char)
00000000  w    F .text._ZN3fmt2v616visit_format_argINS0_13arg_formatterINS0_12buffer_rangeIcEEEENS0_20basic_format_contextISt20back_insert_iteratorINS0_8internal6bufferIcEEEcEEEEDTclfp_Li0EEEOT_RKNS0_16basic_format_argIT0_EE	0000035a decltype ({parm#1}(0)) fmt::v6::visit_format_arg<fmt::v6::arg_formatter<fmt::v6::buffer_range<char> >, fmt::v6::basic_format_context<std::back_insert_iterator<fmt::v6::internal::buffer<char> >, char> >(fmt::v6::arg_formatter<fmt::v6::buffer_range<char> >&&, fmt::v6::basic_format_arg<fmt::v6::basic_format_context<std::back_insert_iterator<fmt::v6::internal::buffer<char> >, char> > const&)
00000000  w    F .text._ZN3fmt2v614format_handlerINS0_13arg_formatterINS0_12buffer_rangeIcEEEEcNS0_20basic_format_contextISt20back_insert_iteratorINS0_8internal6bufferIcEEEcEEE20on_replacement_fieldEPKc	00000032 fmt::v6::format_handler<fmt::v6::arg_formatter<fmt::v6::buffer_range<char> >, char, fmt::v6::basic_format_context<std::back_insert_iterator<fmt::v6::internal::buffer<char> >, char> >::on_replacement_field(char const*)
00000000  w    F .text._ZN3fmt2v68internal19parse_format_stringILb0EcRNS0_14format_handlerINS0_13arg_formatterINS0_12buffer_rangeIcEEEEcNS0_20basic_format_contextISt20back_insert_iteratorINS1_6bufferIcEEEcEEEEEEvNS0_17basic_string_viewIT0_EEOT1_	00000195 void fmt::v6::internal::parse_format_string<false, char, fmt::v6::format_handler<fmt::v6::arg_formatter<fmt::v6::buffer_range<char> >, char, fmt::v6::basic_format_context<std::back_insert_iterator<fmt::v6::internal::buffer<char> >, char> >&>(fmt::v6::basic_string_view<char>, fmt::v6::format_handler<fmt::v6::arg_formatter<fmt::v6::buffer_range<char> >, char, fmt::v6::basic_format_context<std::back_insert_iterator<fmt::v6::internal::buffer<char> >, char> >&)
00000000  w    F .text._ZN3fmt2v610vformat_toINS0_13arg_formatterINS0_12buffer_rangeIcEEEEcNS0_20basic_format_contextISt20back_insert_iteratorINS0_8internal6bufferIcEEEcEEEENT1_8iteratorENT_5rangeENS0_17basic_string_viewIT0_EENS0_17basic_format_argsISD_EENS8_10locale_refE	0000006e fmt::v6::basic_format_context<std::back_insert_iterator<fmt::v6::internal::buffer<char> >, char>::iterator fmt::v6::vformat_to<fmt::v6::arg_formatter<fmt::v6::buffer_range<char> >, char, fmt::v6::basic_format_context<std::back_insert_iterator<fmt::v6::internal::buffer<char> >, char> >(fmt::v6::arg_formatter<fmt::v6::buffer_range<char> >::range, fmt::v6::basic_string_view<char>, fmt::v6::basic_format_args<fmt::v6::basic_format_context<std::back_insert_iterator<fmt::v6::internal::buffer<char> >, char> >, fmt::v6::internal::locale_ref)
00000000         *UND*	00000000 operator delete[](void*)
00000000         *UND*	00000000 Serial
00000000 g     F .text._Z5setupv	000000ee setup()
00000000         *UND*	00000000 HardwareSerial::begin(unsigned long, unsigned int, signed char, signed char, bool, unsigned long)
00000000         *UND*	00000000 xQueueGenericSend
00000000  w    F .text._ZN3fmt2v69format_toIA29_cJRhELj500EcEENS0_14buffer_contextIT2_E8iteratorERNS0_19basic_memory_bufferIS5_XT1_ESaIS5_EEERKT_DpOT0_	0000003c fmt::v6::buffer_context<char>::iterator fmt::v6::format_to<char [29], unsigned char&, 500u, char>(fmt::v6::basic_memory_buffer<char, 500u, std::allocator<char> >&, char const (&) [29], unsigned char&)
00000000  w    F .text._ZN3fmt2v69format_toIA29_cJRhELj500EcEENS0_14buffer_contextIT2_E8iteratorERNS0_19basic_memory_bufferIS5_XT1_ESaIS5_EEERKT_DpOT0_	0000003c fmt::v6::buffer_context<char>::iterator fmt::v6::format_to<char [29], unsigned char&, 500u, char>(fmt::v6::basic_memory_buffer<char, 500u, std::allocator<char> >&, char const (&) [29], unsigned char&)
00000000 g     O .rodata._ZN7OneWire14StandardTimingE	0000002c OneWire::StandardTiming
00000000         *UND*	00000000 pinMode
00000000         *UND*	00000000 xTaskGetCurrentTaskHandle
00000000         *UND*	00000000 ulTaskNotifyTake
00000000         *UND*	00000000 delay
00000000         *UND*	00000000 IPAddress::IPAddress(unsigned char, unsigned char, unsigned char, unsigned char)
00000000         *UND*	00000000 xQueueGenericReceive
00000000         *UND*	00000000 HardwareSerial::write(unsigned char const*, unsigned int)
00000000  w    O .rodata._ZTSSt9exception	0000000d typeinfo name for std::exception
00000000  w    O .rodata._ZTISt9exception	00000008 typeinfo for std::exception
00000000         *UND*	00000000 vtable for __cxxabiv1::__class_type_info
00000000  w    O .rodata._ZTSSt13runtime_error	00000012 typeinfo name for std::runtime_error
00000000  w    O .rodata._ZTISt13runtime_error	0000000c typeinfo for std::runtime_error
00000000         *UND*	00000000 vtable for __cxxabiv1::__si_class_type_info
00000000  w    O .rodata._ZTSN3fmt2v612format_errorE	00000018 typeinfo name for fmt::v6::format_error
00000000 g     O .rodata._ZN7OneWire15OverdriveTimingE	0000002c OneWire::OverdriveTiming
00000000 g     O .data._ZN7HWTimer6s_lockE	00000020 HWTimer::s_lock


